ARM GAS  temps/cmpltest.s 			page 1


   1              	@ Code generated by sial-arm
   2              	
   3              	 ra .req r4
   4              	 rb .req r5
   5              	 rc .req r6
   6              	 rp .req r10
   7              	 rg .req r11
   8              	 .global divrem
   9              	 .align 2
  10              	@ MODSTART
  11              	@ SECTION K8 C99 C109 C112 C108 C116 C101 C115 C116
  12              	
  13              	@ Entry to: wrc
  14              	@ ENTRY   K3 C119 C114 C99
  15              	@ LAB     L1
  16              	
  17              	LA1:
  18 0000 0044A2E8 	 stmia r2!, {r10,lr}
  19 0004 120082E8 	 stmia r2, {r1,ra}
  20 0008 08A042E2 	 sub rp, r2, #8
  21              	@ SP      P8
  22 000c 20408AE5 	 str ra, [rp, #+32] @ 00000020
  23              	@ L       K11
  24 0010 0B40A0E3 	 mov ra, #11 @ 0000000B
  25              	@ KPG     P4 G3
  26 0014 0C109BE5 	 ldr r1, [rg, #+12] @ 0000000C
  27 0018 10208AE2 	 add r2, rp, #16 @ 00000010
  28 001c 0FE0A0E1 	 mov lr, pc
  29 0020 01F0A0E1 	 mov pc, r1
  30              	@ RTN
  31 0024 00849AE8 	 ldmia rp, {rp, pc}
  32              	 .ltorg
  33              	
  34              	
  35              	@ Entry to: wrs
  36              	@ ENTRY   K3 C119 C114 C115
  37              	@ LAB     L2
  38              	
  39              	LA2:
  40 0028 0044A2E8 	 stmia r2!, {r10,lr}
  41 002c 120082E8 	 stmia r2, {r1,ra}
  42 0030 08A042E2 	 sub rp, r2, #8
  43              	@ ATBL    K0
  44 0034 0450A0E1 	 mov rb, ra
  45 0038 0040A0E3 	 mov ra, #0 @ 00000000
  46              	@ GBYT
  47 003c 0541D4E7 	 ldrb ra, [ra, rb, lsl #2]
  48              	@ SP      P5
  49 0040 14408AE5 	 str ra, [rp, #+20] @ 00000014
  50              	@ L       K1
  51 0044 0140A0E3 	 mov ra, #1 @ 00000001
  52              	@ SP      P4
  53 0048 10408AE5 	 str ra, [rp, #+16] @ 00000010
  54              	@ ATBLP   P5
  55 004c 0450A0E1 	 mov rb, ra
  56 0050 14409AE5 	 ldr ra, [rp, #+20] @ 00000014
  57              	@ JGR     L9
ARM GAS  temps/cmpltest.s 			page 2


  58 0054 040055E1 	 cmp rb, ra
  59 0058 280000CA 	 bgt LA9
  60              	@ LAB     L8
  61              	LA8:
  62              	@ LP      P3
  63 005c 0C409AE5 	 ldr ra, [rp, #+12] @ 0000000C
  64              	@ ATBLP   P4
  65 0060 0450A0E1 	 mov rb, ra
  66 0064 10409AE5 	 ldr ra, [rp, #+16] @ 00000010
  67              	@ GBYT
  68 0068 0541D4E7 	 ldrb ra, [ra, rb, lsl #2]
  69              	@ ATB
  70 006c 0450A0E1 	 mov rb, ra
  71              	@ LF      L1
  72 0070 78404FE2 	 adrl ra, LA1
  72      0000A0E1 
  73              	@ K       P6
  74 0078 18208AE2 	 add r2, rp, #24 @ 00000018
  75 007c 0410A0E1 	 mov r1, ra
  76 0080 0540A0E1 	 mov ra, rb
  77 0084 0FE0A0E1 	 mov lr, pc
  78 0088 01F0A0E1 	 mov pc, r1
  79              	@ IKP     K1 P4
  80 008c 10409AE5 	 ldr ra, [rp, #+16] @ 00000010
  81 0090 014084E2 	 add ra, ra, #1 @ 00000001
  82 0094 10408AE5 	 str ra, [rp, #+16] @ 00000010
  83              	@ ATBLP   P5
  84 0098 0450A0E1 	 mov rb, ra
  85 009c 14409AE5 	 ldr ra, [rp, #+20] @ 00000014
  86              	@ JLE     L8
  87 00a0 040055E1 	 cmp rb, ra
  88 00a4 150000DA 	 ble LA8
  89              	@ LAB     L9
  90              	LA9:
  91              	@ RTN
  92 00a8 00849AE8 	 ldmia rp, {rp, pc}
  93              	 .ltorg
  94              	
  95              	
  96              	@ Entry to: nl
  97              	@ ENTRY   K2 C110 C108
  98              	@ LAB     L3
  99              	
 100              	LA3:
 101 00ac 0044A2E8 	 stmia r2!, {r10,lr}
 102 00b0 120082E8 	 stmia r2, {r1,ra}
 103 00b4 08A042E2 	 sub rp, r2, #8
 104              	@ L       K10
 105 00b8 0A40A0E3 	 mov ra, #10 @ 0000000A
 106              	@ ATB
 107 00bc 0450A0E1 	 mov rb, ra
 108              	@ LF      L1
 109 00c0 C8404FE2 	 adrl ra, LA1
 109      0000A0E1 
 110              	@ K       P3
 111 00c8 0C208AE2 	 add r2, rp, #12 @ 0000000C
 112 00cc 0410A0E1 	 mov r1, ra
ARM GAS  temps/cmpltest.s 			page 3


 113 00d0 0540A0E1 	 mov ra, rb
 114 00d4 0FE0A0E1 	 mov lr, pc
 115 00d8 01F0A0E1 	 mov pc, r1
 116              	@ RTN
 117 00dc 00849AE8 	 ldmia rp, {rp, pc}
 118              	 .ltorg
 119              	
 120              	
 121              	@ Entry to: wrd
 122              	@ ENTRY   K3 C119 C114 C100
 123              	@ LAB     L4
 124              	
 125              	LA4:
 126 00e0 0044A2E8 	 stmia r2!, {r10,lr}
 127 00e4 120082E8 	 stmia r2, {r1,ra}
 128 00e8 08A042E2 	 sub rp, r2, #8
 129              	@ NEG
 130 00ec 004064E2 	 rsb ra, ra, #0
 131              	@ SP      P7
 132 00f0 1C408AE5 	 str ra, [rp, #+28] @ 0000001C
 133              	@ LLP     P8
 134 00f4 0840A0E3 	 mov ra, #8 @ 00000008
 135 00f8 2A4184E0 	 add ra, ra, rp, lsr #2
 136              	@ SP      P5
 137 00fc 14408AE5 	 str ra, [rp, #+20] @ 00000014
 138              	@ L       K0
 139 0100 0040A0E3 	 mov ra, #0 @ 00000000
 140              	@ SP      P6
 141 0104 18408AE5 	 str ra, [rp, #+24] @ 00000018
 142              	@ LP      P3
 143 0108 0C409AE5 	 ldr ra, [rp, #+12] @ 0000000C
 144              	@ JGE0    L10
 145 010c 000054E3 	 cmp ra, #0
 146 0110 480000AA 	 bge LA10
 147              	@ IKP     K-1 P4
 148 0114 10409AE5 	 ldr ra, [rp, #+16] @ 00000010
 149 0118 014044E2 	 sub ra, ra, #1 @ 00000001
 150 011c 10408AE5 	 str ra, [rp, #+16] @ 00000010
 151              	@ LP      P3
 152 0120 0C409AE5 	 ldr ra, [rp, #+12] @ 0000000C
 153              	@ SP      P7
 154 0124 1C408AE5 	 str ra, [rp, #+28] @ 0000001C
 155              	@ LAB     L10
 156              	LA10:
 157              	@ LAB     L11
 158              	LA11:
 159              	@ LP      P7
 160 0128 1C409AE5 	 ldr ra, [rp, #+28] @ 0000001C
 161              	@ ATBL    K10
 162 012c 0450A0E1 	 mov rb, ra
 163 0130 0A40A0E3 	 mov ra, #10 @ 0000000A
 164              	@ REM
 165 0134 0400A0E1 	 mov r0, ra
 166 0138 0510A0E1 	 mov r1, rb
 167 013c 00209FE5 	 ldr r2, [pc]
 168 0140 0FF0A0E1 	 mov pc, pc
 169 0144 00000000 	 .long divrem
ARM GAS  temps/cmpltest.s 			page 4


 170 0148 0FE0A0E1 	 mov lr, pc
 171 014c 02F0A0E1 	 mov pc, r2
 172 0150 0140A0E1 	 mov ra, r1
 173              	@ NEG
 174 0154 004064E2 	 rsb ra, ra, #0
 175              	@ ATBLP   P6
 176 0158 0450A0E1 	 mov rb, ra
 177 015c 18409AE5 	 ldr ra, [rp, #+24] @ 00000018
 178              	@ STP     P5
 179 0160 14109AE5 	 ldr r1, [rp, #+20] @ 00000014
 180 0164 0421A0E1 	 mov r2, ra, lsl #2
 181 0168 015182E7 	 str rb, [r2, r1, lsl #2]
 182              	@ IKP     K1 P6
 183 016c 18409AE5 	 ldr ra, [rp, #+24] @ 00000018
 184 0170 014084E2 	 add ra, ra, #1 @ 00000001
 185 0174 18408AE5 	 str ra, [rp, #+24] @ 00000018
 186              	@ LP      P7
 187 0178 1C409AE5 	 ldr ra, [rp, #+28] @ 0000001C
 188              	@ ATBL    K10
 189 017c 0450A0E1 	 mov rb, ra
 190 0180 0A40A0E3 	 mov ra, #10 @ 0000000A
 191              	@ DIV
 192 0184 0400A0E1 	 mov r0, ra
 193 0188 0510A0E1 	 mov r1, rb
 194 018c 00209FE5 	 ldr r2, [pc]
 195 0190 0FF0A0E1 	 mov pc, pc
 196 0194 00000000 	 .long divrem
 197 0198 0FE0A0E1 	 mov lr, pc
 198 019c 02F0A0E1 	 mov pc, r2
 199 01a0 0040A0E1 	 mov ra, r0
 200              	@ SP      P7
 201 01a4 1C408AE5 	 str ra, [rp, #+28] @ 0000001C
 202              	@ JNE0    L11
 203 01a8 000054E3 	 cmp ra, #0
 204 01ac 4800001A 	 bne LA11
 205              	@ L       K1
 206 01b0 0140A0E3 	 mov ra, #1 @ 00000001
 207              	@ AP      P6
 208 01b4 18109AE5 	 ldr r1, [rp, #+24] @ 00000018
 209 01b8 014084E0 	 add ra, ra, r1
 210              	@ SP      P39
 211 01bc 9C408AE5 	 str ra, [rp, #+156] @ 0000009C
 212              	@ LP      P4
 213 01c0 10409AE5 	 ldr ra, [rp, #+16] @ 00000010
 214              	@ SP      P40
 215 01c4 A0408AE5 	 str ra, [rp, #+160] @ 000000A0
 216              	@ ATBLP   P39
 217 01c8 0450A0E1 	 mov rb, ra
 218 01cc 9C409AE5 	 ldr ra, [rp, #+156] @ 0000009C
 219              	@ JLS     L13
 220 01d0 040055E1 	 cmp rb, ra
 221 01d4 840000BA 	 blt LA13
 222              	@ LAB     L12
 223              	LA12:
 224              	@ L       K32
 225 01d8 2040A0E3 	 mov ra, #32 @ 00000020
 226              	@ ATB
ARM GAS  temps/cmpltest.s 			page 5


 227 01dc 0450A0E1 	 mov rb, ra
 228              	@ LF      L1
 229 01e0 7A4F4FE2 	 adrl ra, LA1
 229      0000A0E1 
 230              	@ K       P41
 231 01e8 A4208AE2 	 add r2, rp, #164 @ 000000A4
 232 01ec 0410A0E1 	 mov r1, ra
 233 01f0 0540A0E1 	 mov ra, rb
 234 01f4 0FE0A0E1 	 mov lr, pc
 235 01f8 01F0A0E1 	 mov pc, r1
 236              	@ IKP     K1 P39
 237 01fc 9C409AE5 	 ldr ra, [rp, #+156] @ 0000009C
 238 0200 014084E2 	 add ra, ra, #1 @ 00000001
 239 0204 9C408AE5 	 str ra, [rp, #+156] @ 0000009C
 240              	@ ATBLP   P40
 241 0208 0450A0E1 	 mov rb, ra
 242 020c A0409AE5 	 ldr ra, [rp, #+160] @ 000000A0
 243              	@ JLE     L12
 244 0210 040055E1 	 cmp rb, ra
 245 0214 740000DA 	 ble LA12
 246              	@ LAB     L13
 247              	LA13:
 248              	@ LP      P3
 249 0218 0C409AE5 	 ldr ra, [rp, #+12] @ 0000000C
 250              	@ JGE0    L14
 251 021c 000054E3 	 cmp ra, #0
 252 0220 900000AA 	 bge LA14
 253              	@ L       K45
 254 0224 2D40A0E3 	 mov ra, #45 @ 0000002D
 255              	@ ATB
 256 0228 0450A0E1 	 mov rb, ra
 257              	@ LF      L1
 258 022c 8D4F4FE2 	 adrl ra, LA1
 258      0000A0E1 
 259              	@ K       P39
 260 0234 9C208AE2 	 add r2, rp, #156 @ 0000009C
 261 0238 0410A0E1 	 mov r1, ra
 262 023c 0540A0E1 	 mov ra, rb
 263 0240 0FE0A0E1 	 mov lr, pc
 264 0244 01F0A0E1 	 mov pc, r1
 265              	@ LAB     L14
 266              	LA14:
 267              	@ LM      K1
 268 0248 0040E0E3 	 mvn ra, #0 @ 00000000
 269              	@ AP      P6
 270 024c 18109AE5 	 ldr r1, [rp, #+24] @ 00000018
 271 0250 014084E0 	 add ra, ra, r1
 272              	@ SP      P39
 273 0254 9C408AE5 	 str ra, [rp, #+156] @ 0000009C
 274              	@ JLS0    L16
 275 0258 000054E3 	 cmp ra, #0
 276 025c A80000BA 	 blt LA16
 277              	@ LAB     L15
 278              	LA15:
 279              	@ LP      P5
 280 0260 14409AE5 	 ldr ra, [rp, #+20] @ 00000014
 281              	@ RVP     P39
ARM GAS  temps/cmpltest.s 			page 6


 282 0264 9C109AE5 	 ldr r1, [rp, #+156] @ 0000009C
 283 0268 0111A0E1 	 mov r1, r1, lsl #2
 284 026c 044191E7 	 ldr ra, [r1, ra, lsl #2]
 285              	@ A       K48
 286 0270 304084E2 	 add ra, ra, #48 @ 00000030
 287              	@ ATB
 288 0274 0450A0E1 	 mov rb, ra
 289              	@ LF      L1
 290 0278 0A4D4FE2 	 adrl ra, LA1
 290      0000A0E1 
 291              	@ K       P40
 292 0280 A0208AE2 	 add r2, rp, #160 @ 000000A0
 293 0284 0410A0E1 	 mov r1, ra
 294 0288 0540A0E1 	 mov ra, rb
 295 028c 0FE0A0E1 	 mov lr, pc
 296 0290 01F0A0E1 	 mov pc, r1
 297              	@ IKP     K-1 P39
 298 0294 9C409AE5 	 ldr ra, [rp, #+156] @ 0000009C
 299 0298 014044E2 	 sub ra, ra, #1 @ 00000001
 300 029c 9C408AE5 	 str ra, [rp, #+156] @ 0000009C
 301              	@ JGE0    L15
 302 02a0 000054E3 	 cmp ra, #0
 303 02a4 960000AA 	 bge LA15
 304              	@ LAB     L16
 305              	LA16:
 306              	@ RTN
 307 02a8 00849AE8 	 ldmia rp, {rp, pc}
 308              	 .ltorg
 309              	
 310              	
 311              	@ Entry to: wrn
 312              	@ ENTRY   K3 C119 C114 C110
 313              	@ LAB     L5
 314              	
 315              	LA5:
 316 02ac 0044A2E8 	 stmia r2!, {r10,lr}
 317 02b0 120082E8 	 stmia r2, {r1,ra}
 318 02b4 08A042E2 	 sub rp, r2, #8
 319              	@ L       K0
 320 02b8 0040A0E3 	 mov ra, #0 @ 00000000
 321              	@ SP      P8
 322 02bc 20408AE5 	 str ra, [rp, #+32] @ 00000020
 323              	@ LP      P3
 324 02c0 0C409AE5 	 ldr ra, [rp, #+12] @ 0000000C
 325              	@ ATB
 326 02c4 0450A0E1 	 mov rb, ra
 327              	@ LF      L4
 328 02c8 1F4E4FE2 	 adrl ra, LA4
 328      0000A0E1 
 329              	@ K       P4
 330 02d0 10208AE2 	 add r2, rp, #16 @ 00000010
 331 02d4 0410A0E1 	 mov r1, ra
 332 02d8 0540A0E1 	 mov ra, rb
 333 02dc 0FE0A0E1 	 mov lr, pc
 334 02e0 01F0A0E1 	 mov pc, r1
 335              	@ RTN
 336 02e4 00849AE8 	 ldmia rp, {rp, pc}
ARM GAS  temps/cmpltest.s 			page 7


 337              	 .ltorg
 338              	
 339              	
 340              	@ Entry to: wrx
 341              	@ ENTRY   K3 C119 C114 C120
 342              	@ LAB     L6
 343              	
 344              	LA6:
 345 02e8 0044A2E8 	 stmia r2!, {r10,lr}
 346 02ec 120082E8 	 stmia r2, {r1,ra}
 347 02f0 08A042E2 	 sub rp, r2, #8
 348              	@ LP      P4
 349 02f4 10409AE5 	 ldr ra, [rp, #+16] @ 00000010
 350              	@ ATBL    K1
 351 02f8 0450A0E1 	 mov rb, ra
 352 02fc 0140A0E3 	 mov ra, #1 @ 00000001
 353              	@ JLE     L17
 354 0300 040055E1 	 cmp rb, ra
 355 0304 D40000DA 	 ble LA17
 356              	@ LP      P3
 357 0308 0C409AE5 	 ldr ra, [rp, #+12] @ 0000000C
 358              	@ ATBL    K4
 359 030c 0450A0E1 	 mov rb, ra
 360 0310 0440A0E3 	 mov ra, #4 @ 00000004
 361              	@ RSH
 362 0314 1F0054E3 	 cmp ra, #31
 363 0318 0050A083 	 movhi rb, #0
 364 031c 3544A0E1 	 mov ra, rb, lsr ra
 365              	@ SP      P8
 366 0320 20408AE5 	 str ra, [rp, #+32] @ 00000020
 367              	@ LM      K1
 368 0324 0040E0E3 	 mvn ra, #0 @ 00000000
 369              	@ AP      P4
 370 0328 10109AE5 	 ldr r1, [rp, #+16] @ 00000010
 371 032c 014084E0 	 add ra, ra, r1
 372              	@ SP      P9
 373 0330 24408AE5 	 str ra, [rp, #+36] @ 00000024
 374              	@ LP      P8
 375 0334 20409AE5 	 ldr ra, [rp, #+32] @ 00000020
 376              	@ ATB
 377 0338 0450A0E1 	 mov rb, ra
 378              	@ LF      L6
 379 033c 5C404FE2 	 adrl ra, LA6
 379      0000A0E1 
 380              	@ K       P5
 381 0344 14208AE2 	 add r2, rp, #20 @ 00000014
 382 0348 0410A0E1 	 mov r1, ra
 383 034c 0540A0E1 	 mov ra, rb
 384 0350 0FE0A0E1 	 mov lr, pc
 385 0354 01F0A0E1 	 mov pc, r1
 386              	@ LAB     L17
 387              	LA17:
 388              	@ L       K15
 389 0358 0F40A0E3 	 mov ra, #15 @ 0000000F
 390              	@ ATBLP   P3
 391 035c 0450A0E1 	 mov rb, ra
 392 0360 0C409AE5 	 ldr ra, [rp, #+12] @ 0000000C
ARM GAS  temps/cmpltest.s 			page 8


 393              	@ AND
 394 0364 044005E0 	 and ra, rb, ra
 395              	@ ATB
 396 0368 0450A0E1 	 mov rb, ra
 397              	@ LLL     L18
 398 036c 34408FE2 	 adrl ra, LA18
 398      0000A0E1 
 399 0374 2441A0E1 	 mov ra, ra, lsr #2
 400              	@ ADD
 401 0378 044085E0 	 add ra, rb, ra
 402              	@ RV
 403 037c 041084E0 	 add r1, ra, ra
 404 0380 014091E7 	 ldr ra, [r1, r1]
 405              	@ ATB
 406 0384 0450A0E1 	 mov rb, ra
 407              	@ LF      L1
 408 0388 394E4FE2 	 adrl ra, LA1
 408      0000A0E1 
 409              	@ K       P5
 410 0390 14208AE2 	 add r2, rp, #20 @ 00000014
 411 0394 0410A0E1 	 mov r1, ra
 412 0398 0540A0E1 	 mov ra, rb
 413 039c 0FE0A0E1 	 mov lr, pc
 414 03a0 01F0A0E1 	 mov pc, r1
 415              	@ RTN
 416 03a4 00849AE8 	 ldmia rp, {rp, pc}
 417              	 .ltorg
 418              	
 419              	@ STATIC  L18 K16
 420              	LA18:
 421              	@ W48
 422 03a8 30000000 	 .long 48
 423              	@ W49
 424 03ac 31000000 	 .long 49
 425              	@ W50
 426 03b0 32000000 	 .long 50
 427              	@ W51
 428 03b4 33000000 	 .long 51
 429              	@ W52
 430 03b8 34000000 	 .long 52
 431              	@ W53
 432 03bc 35000000 	 .long 53
 433              	@ W54
 434 03c0 36000000 	 .long 54
 435              	@ W55
 436 03c4 37000000 	 .long 55
 437              	@ W56
 438 03c8 38000000 	 .long 56
 439              	@ W57
 440 03cc 39000000 	 .long 57
 441              	@ W65
 442 03d0 41000000 	 .long 65
 443              	@ W66
 444 03d4 42000000 	 .long 66
 445              	@ W67
 446 03d8 43000000 	 .long 67
 447              	@ W68
ARM GAS  temps/cmpltest.s 			page 9


 448 03dc 44000000 	 .long 68
 449              	@ W69
 450 03e0 45000000 	 .long 69
 451              	@ W70
 452 03e4 46000000 	 .long 70
 453              	
 454              	@ Entry to: t
 455              	@ ENTRY   K1 C116
 456              	@ LAB     L19
 457              	
 458              	LA19:
 459 03e8 0044A2E8 	 stmia r2!, {r10,lr}
 460 03ec 120082E8 	 stmia r2, {r1,ra}
 461 03f0 08A042E2 	 sub rp, r2, #8
 462              	@ IKG     K1 G206
 463 03f4 38439BE5 	 ldr ra, [rg, #+824] @ 00000338
 464 03f8 014084E2 	 add ra, ra, #1 @ 00000001
 465 03fc 38438BE5 	 str ra, [rg, #+824] @ 00000338
 466              	@ L       K4
 467 0400 0440A0E3 	 mov ra, #4 @ 00000004
 468              	@ SP      P9
 469 0404 24408AE5 	 str ra, [rp, #+36] @ 00000024
 470              	@ LG      G203
 471 0408 2C439BE5 	 ldr ra, [rg, #+812] @ 0000032C
 472              	@ ATB
 473 040c 0450A0E1 	 mov rb, ra
 474              	@ LF      L4
 475 0410 CE4F4FE2 	 adrl ra, LA4
 475      0000A0E1 
 476              	@ K       P5
 477 0418 14208AE2 	 add r2, rp, #20 @ 00000014
 478 041c 0410A0E1 	 mov r1, ra
 479 0420 0540A0E1 	 mov ra, rb
 480 0424 0FE0A0E1 	 mov lr, pc
 481 0428 01F0A0E1 	 mov pc, r1
 482              	@ L       K32
 483 042c 2040A0E3 	 mov ra, #32 @ 00000020
 484              	@ ATB
 485 0430 0450A0E1 	 mov rb, ra
 486              	@ LF      L1
 487 0434 3C404FE2 	 adrl ra, LA1
 487      044C44E2 
 488              	@ K       P5
 489 043c 14208AE2 	 add r2, rp, #20 @ 00000014
 490 0440 0410A0E1 	 mov r1, ra
 491 0444 0540A0E1 	 mov ra, rb
 492 0448 0FE0A0E1 	 mov lr, pc
 493 044c 01F0A0E1 	 mov pc, r1
 494              	@ L       K21
 495 0450 1540A0E3 	 mov ra, #21 @ 00000015
 496              	@ SP      P9
 497 0454 24408AE5 	 str ra, [rp, #+36] @ 00000024
 498              	@ LP      P3
 499 0458 0C409AE5 	 ldr ra, [rp, #+12] @ 0000000C
 500              	@ ATB
 501 045c 0450A0E1 	 mov rb, ra
 502              	@ LF      L4
ARM GAS  temps/cmpltest.s 			page 10


 503 0460 E24F4FE2 	 adrl ra, LA4
 503      0000A0E1 
 504              	@ K       P5
 505 0468 14208AE2 	 add r2, rp, #20 @ 00000014
 506 046c 0410A0E1 	 mov r1, ra
 507 0470 0540A0E1 	 mov ra, rb
 508 0474 0FE0A0E1 	 mov lr, pc
 509 0478 01F0A0E1 	 mov pc, r1
 510              	@ L       K32
 511 047c 2040A0E3 	 mov ra, #32 @ 00000020
 512              	@ ATB
 513 0480 0450A0E1 	 mov rb, ra
 514              	@ LF      L1
 515 0484 8C404FE2 	 adrl ra, LA1
 515      044C44E2 
 516              	@ K       P5
 517 048c 14208AE2 	 add r2, rp, #20 @ 00000014
 518 0490 0410A0E1 	 mov r1, ra
 519 0494 0540A0E1 	 mov ra, rb
 520 0498 0FE0A0E1 	 mov lr, pc
 521 049c 01F0A0E1 	 mov pc, r1
 522              	@ LP      P4
 523 04a0 10409AE5 	 ldr ra, [rp, #+16] @ 00000010
 524              	@ ATBLP   P3
 525 04a4 0450A0E1 	 mov rb, ra
 526 04a8 0C409AE5 	 ldr ra, [rp, #+12] @ 0000000C
 527              	@ JNE     L21
 528 04ac 040055E1 	 cmp rb, ra
 529 04b0 3701001A 	 bne LA21
 530              	@ LSTR    M1
 531 04b4 574F8FE2 	 adrl ra, MA1
 531      0000A0E1 
 532 04bc 2441A0E1 	 mov ra, ra, lsr #2
 533              	@ ATB
 534 04c0 0450A0E1 	 mov rb, ra
 535              	@ LF      L2
 536 04c4 A4404FE2 	 adrl ra, LA2
 536      044C44E2 
 537              	@ K       P5
 538 04cc 14208AE2 	 add r2, rp, #20 @ 00000014
 539 04d0 0410A0E1 	 mov r1, ra
 540 04d4 0540A0E1 	 mov ra, rb
 541 04d8 0FE0A0E1 	 mov lr, pc
 542 04dc 01F0A0E1 	 mov pc, r1
 543              	@ J       L22
 544 04e0 780100EA 	 b LA22
 545              	 .ltorg
 546              	
 547              	@ LAB     L21
 548              	LA21:
 549              	@ L       K8
 550 04e4 0840A0E3 	 mov ra, #8 @ 00000008
 551              	@ SP      P9
 552 04e8 24408AE5 	 str ra, [rp, #+36] @ 00000024
 553              	@ LP      P3
 554 04ec 0C409AE5 	 ldr ra, [rp, #+12] @ 0000000C
 555              	@ ATB
ARM GAS  temps/cmpltest.s 			page 11


 556 04f0 0450A0E1 	 mov rb, ra
 557              	@ LF      L6
 558 04f4 854F4FE2 	 adrl ra, LA6
 558      0000A0E1 
 559              	@ K       P5
 560 04fc 14208AE2 	 add r2, rp, #20 @ 00000014
 561 0500 0410A0E1 	 mov r1, ra
 562 0504 0540A0E1 	 mov ra, rb
 563 0508 0FE0A0E1 	 mov lr, pc
 564 050c 01F0A0E1 	 mov pc, r1
 565              	@ LSTR    M2
 566 0510 414F8FE2 	 adrl ra, MA2
 566      0000A0E1 
 567 0518 2441A0E1 	 mov ra, ra, lsr #2
 568              	@ ATB
 569 051c 0450A0E1 	 mov rb, ra
 570              	@ LF      L2
 571 0520 054C4FE2 	 adrl ra, LA2
 571      0000A0E1 
 572              	@ K       P5
 573 0528 14208AE2 	 add r2, rp, #20 @ 00000014
 574 052c 0410A0E1 	 mov r1, ra
 575 0530 0540A0E1 	 mov ra, rb
 576 0534 0FE0A0E1 	 mov lr, pc
 577 0538 01F0A0E1 	 mov pc, r1
 578              	@ L       K13
 579 053c 0D40A0E3 	 mov ra, #13 @ 0000000D
 580              	@ SP      P9
 581 0540 24408AE5 	 str ra, [rp, #+36] @ 00000024
 582              	@ LP      P4
 583 0544 10409AE5 	 ldr ra, [rp, #+16] @ 00000010
 584              	@ ATB
 585 0548 0450A0E1 	 mov rb, ra
 586              	@ LF      L4
 587 054c 74404FE2 	 adrl ra, LA4
 587      044C44E2 
 588              	@ K       P5
 589 0554 14208AE2 	 add r2, rp, #20 @ 00000014
 590 0558 0410A0E1 	 mov r1, ra
 591 055c 0540A0E1 	 mov ra, rb
 592 0560 0FE0A0E1 	 mov lr, pc
 593 0564 01F0A0E1 	 mov pc, r1
 594              	@ L       K32
 595 0568 2040A0E3 	 mov ra, #32 @ 00000020
 596              	@ ATB
 597 056c 0450A0E1 	 mov rb, ra
 598              	@ LF      L1
 599 0570 78404FE2 	 adrl ra, LA1
 599      054C44E2 
 600              	@ K       P5
 601 0578 14208AE2 	 add r2, rp, #20 @ 00000014
 602 057c 0410A0E1 	 mov r1, ra
 603 0580 0540A0E1 	 mov ra, rb
 604 0584 0FE0A0E1 	 mov lr, pc
 605 0588 01F0A0E1 	 mov pc, r1
 606              	@ L       K8
 607 058c 0840A0E3 	 mov ra, #8 @ 00000008
ARM GAS  temps/cmpltest.s 			page 12


 608              	@ SP      P9
 609 0590 24408AE5 	 str ra, [rp, #+36] @ 00000024
 610              	@ LP      P4
 611 0594 10409AE5 	 ldr ra, [rp, #+16] @ 00000010
 612              	@ ATB
 613 0598 0450A0E1 	 mov rb, ra
 614              	@ LF      L6
 615 059c AF4F4FE2 	 adrl ra, LA6
 615      0000A0E1 
 616              	@ K       P5
 617 05a4 14208AE2 	 add r2, rp, #20 @ 00000014
 618 05a8 0410A0E1 	 mov r1, ra
 619 05ac 0540A0E1 	 mov ra, rb
 620 05b0 0FE0A0E1 	 mov lr, pc
 621 05b4 01F0A0E1 	 mov pc, r1
 622              	@ IKG     K1 G204
 623 05b8 30439BE5 	 ldr ra, [rg, #+816] @ 00000330
 624 05bc 014084E2 	 add ra, ra, #1 @ 00000001
 625 05c0 30438BE5 	 str ra, [rg, #+816] @ 00000330
 626              	@ LF      L3
 627 05c4 524E4FE2 	 adrl ra, LA3
 627      0000A0E1 
 628              	@ K       P5
 629 05cc 14208AE2 	 add r2, rp, #20 @ 00000014
 630 05d0 0410A0E1 	 mov r1, ra
 631 05d4 0540A0E1 	 mov ra, rb
 632 05d8 0FE0A0E1 	 mov lr, pc
 633 05dc 01F0A0E1 	 mov pc, r1
 634              	@ LM      K1
 635 05e0 0040E0E3 	 mvn ra, #0 @ 00000000
 636              	@ GOTO
 637 05e4 04F0A0E1 	 mov pc, ra
 638              	 .ltorg
 639              	
 640              	@ LAB     L22
 641              	LA22:
 642              	@ LF      L3
 643 05e8 44404FE2 	 adrl ra, LA3
 643      054C44E2 
 644              	@ K       P5
 645 05f0 14208AE2 	 add r2, rp, #20 @ 00000014
 646 05f4 0410A0E1 	 mov r1, ra
 647 05f8 0540A0E1 	 mov ra, rb
 648 05fc 0FE0A0E1 	 mov lr, pc
 649 0600 01F0A0E1 	 mov pc, r1
 650              	@ IKG     K1 G203
 651 0604 2C439BE5 	 ldr ra, [rg, #+812] @ 0000032C
 652 0608 014084E2 	 add ra, ra, #1 @ 00000001
 653 060c 2C438BE5 	 str ra, [rg, #+812] @ 0000032C
 654              	@ LP      P4
 655 0610 10409AE5 	 ldr ra, [rp, #+16] @ 00000010
 656              	@ RTN
 657 0614 00849AE8 	 ldmia rp, {rp, pc}
 658              	 .ltorg
 659              	
 660              	@ STRING  M1 K2 C79 C75
 661              	MA1:
ARM GAS  temps/cmpltest.s 			page 13


 662 0618 024F4B00 	 .byte   2, 79, 75,  0
 663              	@ STRING  M2 K21 C32 C70 C65 C73 C76 C69 C68 C10 C73 C116 C32 C115 C104 C111 C117 C108 C100 C32 C98
 664              	MA2:
 665 061c 15204641 	 .byte  21, 32, 70, 65
 666 0620 494C4544 	 .byte  73, 76, 69, 68
 667 0624 0A497420 	 .byte  10, 73,116, 32
 668 0628 73686F75 	 .byte 115,104,111,117
 669 062c 6C642062 	 .byte 108,100, 32, 98
 670 0630 65200000 	 .byte 101, 32,  0,  0
 671              	
 672              	@ Entry to: t1
 673              	@ ENTRY   K2 C116 C49
 674              	@ LAB     L23
 675              	
 676              	LA23:
 677 0634 0044A2E8 	 stmia r2!, {r10,lr}
 678 0638 120082E8 	 stmia r2, {r1,ra}
 679 063c 08A042E2 	 sub rp, r2, #8
 680              	@ AP      P4
 681 0640 10109AE5 	 ldr r1, [rp, #+16] @ 00000010
 682 0644 014084E0 	 add ra, ra, r1
 683              	@ AP      P5
 684 0648 14109AE5 	 ldr r1, [rp, #+20] @ 00000014
 685 064c 014084E0 	 add ra, ra, r1
 686              	@ AP      P6
 687 0650 18109AE5 	 ldr r1, [rp, #+24] @ 00000018
 688 0654 014084E0 	 add ra, ra, r1
 689              	@ AP      P7
 690 0658 1C109AE5 	 ldr r1, [rp, #+28] @ 0000001C
 691 065c 014084E0 	 add ra, ra, r1
 692              	@ AP      P8
 693 0660 20109AE5 	 ldr r1, [rp, #+32] @ 00000020
 694 0664 014084E0 	 add ra, ra, r1
 695              	@ ATB
 696 0668 0450A0E1 	 mov rb, ra
 697              	@ LP      P9
 698 066c 24409AE5 	 ldr ra, [rp, #+36] @ 00000024
 699              	@ SP      P14
 700 0670 38408AE5 	 str ra, [rp, #+56] @ 00000038
 701              	@ XCH
 702 0674 0410A0E1 	 mov r1, ra
 703 0678 0540A0E1 	 mov ra, rb
 704 067c 0150A0E1 	 mov rb, r1
 705              	@ KPG     P10 G208
 706 0680 40139BE5 	 ldr r1, [rg, #+832] @ 00000340
 707 0684 28208AE2 	 add r2, rp, #40 @ 00000028
 708 0688 0FE0A0E1 	 mov lr, pc
 709 068c 01F0A0E1 	 mov pc, r1
 710              	@ RTN
 711 0690 00849AE8 	 ldmia rp, {rp, pc}
 712              	 .ltorg
 713              	
 714              	
 715              	@ Entry to: start
 716              	@ ENTRY   K5 C115 C116 C97 C114 C116
 717              	@ LAB     L25
 718              	
ARM GAS  temps/cmpltest.s 			page 14


 719              	LA25:
 720 0694 0044A2E8 	 stmia r2!, {r10,lr}
 721 0698 120082E8 	 stmia r2, {r1,ra}
 722 069c 08A042E2 	 sub rp, r2, #8
 723              	@ L       K65
 724 06a0 4140A0E3 	 mov ra, #65 @ 00000041
 725              	@ SP      P4
 726 06a4 10408AE5 	 str ra, [rp, #+16] @ 00000010
 727              	@ LLP     P7
 728 06a8 0740A0E3 	 mov ra, #7 @ 00000007
 729 06ac 2A4184E0 	 add ra, ra, rp, lsr #2
 730              	@ SP      P5
 731 06b0 14408AE5 	 str ra, [rp, #+20] @ 00000014
 732              	@ LLP     P208
 733 06b4 D040A0E3 	 mov ra, #208 @ 000000D0
 734 06b8 2A4184E0 	 add ra, ra, rp, lsr #2
 735              	@ SP      P6
 736 06bc 18408AE5 	 str ra, [rp, #+24] @ 00000018
 737              	@ L       K65
 738 06c0 4140A0E3 	 mov ra, #65 @ 00000041
 739              	@ SP      P413
 740 06c4 74468AE5 	 str ra, [rp, #+1652] @ 00000674
 741              	@ L       K11
 742 06c8 0B40A0E3 	 mov ra, #11 @ 0000000B
 743              	@ KPG     P409 G3
 744 06cc 0C109BE5 	 ldr r1, [rg, #+12] @ 0000000C
 745 06d0 992F8AE2 	 add r2, rp, #612 @ 00000264
 746 06d4 012B82E2 	 add r2, r2, #1024 @ 00000400
 747 06d8 0FE0A0E1 	 mov lr, pc
 748 06dc 01F0A0E1 	 mov pc, r1
 749              	@ L       K65
 750 06e0 4140A0E3 	 mov ra, #65 @ 00000041
 751              	@ SP      P413
 752 06e4 74468AE5 	 str ra, [rp, #+1652] @ 00000674
 753              	@ L       K11
 754 06e8 0B40A0E3 	 mov ra, #11 @ 0000000B
 755              	@ KPG     P409 G3
 756 06ec 0C109BE5 	 ldr r1, [rg, #+12] @ 0000000C
 757 06f0 992F8AE2 	 add r2, rp, #612 @ 00000264
 758 06f4 012B82E2 	 add r2, r2, #1024 @ 00000400
 759 06f8 0FE0A0E1 	 mov lr, pc
 760 06fc 01F0A0E1 	 mov pc, r1
 761              	@ L       K65
 762 0700 4140A0E3 	 mov ra, #65 @ 00000041
 763              	@ SP      P413
 764 0704 74468AE5 	 str ra, [rp, #+1652] @ 00000674
 765              	@ L       K11
 766 0708 0B40A0E3 	 mov ra, #11 @ 0000000B
 767              	@ KPG     P409 G3
 768 070c 0C109BE5 	 ldr r1, [rg, #+12] @ 0000000C
 769 0710 992F8AE2 	 add r2, rp, #612 @ 00000264
 770 0714 012B82E2 	 add r2, r2, #1024 @ 00000400
 771 0718 0FE0A0E1 	 mov lr, pc
 772 071c 01F0A0E1 	 mov pc, r1
 773              	@ L       K65
 774 0720 4140A0E3 	 mov ra, #65 @ 00000041
 775              	@ SP      P413
ARM GAS  temps/cmpltest.s 			page 15


 776 0724 74468AE5 	 str ra, [rp, #+1652] @ 00000674
 777              	@ L       K11
 778 0728 0B40A0E3 	 mov ra, #11 @ 0000000B
 779              	@ KPG     P409 G3
 780 072c 0C109BE5 	 ldr r1, [rg, #+12] @ 0000000C
 781 0730 992F8AE2 	 add r2, rp, #612 @ 00000264
 782 0734 012B82E2 	 add r2, r2, #1024 @ 00000400
 783 0738 0FE0A0E1 	 mov lr, pc
 784 073c 01F0A0E1 	 mov pc, r1
 785              	@ L       K10
 786 0740 0A40A0E3 	 mov ra, #10 @ 0000000A
 787              	@ SP      P413
 788 0744 74468AE5 	 str ra, [rp, #+1652] @ 00000674
 789              	@ L       K11
 790 0748 0B40A0E3 	 mov ra, #11 @ 0000000B
 791              	@ KPG     P409 G3
 792 074c 0C109BE5 	 ldr r1, [rg, #+12] @ 0000000C
 793 0750 992F8AE2 	 add r2, rp, #612 @ 00000264
 794 0754 012B82E2 	 add r2, r2, #1024 @ 00000400
 795 0758 0FE0A0E1 	 mov lr, pc
 796 075c 01F0A0E1 	 mov pc, r1
 797              	@ LSTR    M3
 798 0760 9E4F8FE2 	 adrl ra, MA3
 798      0000A0E1 
 799 0768 2441A0E1 	 mov ra, ra, lsr #2
 800              	@ ATB
 801 076c 0450A0E1 	 mov rb, ra
 802              	@ LF      L2
 803 0770 754E4FE2 	 adrl ra, LA2
 803      0000A0E1 
 804              	@ K       P409
 805 0778 992F8AE2 	 add r2, rp, #612 @ 00000264
 806 077c 012B82E2 	 add r2, r2, #1024 @ 00000400
 807 0780 0410A0E1 	 mov r1, ra
 808 0784 0540A0E1 	 mov ra, rb
 809 0788 0FE0A0E1 	 mov lr, pc
 810 078c 01F0A0E1 	 mov pc, r1
 811              	@ L       K1
 812 0790 0140A0E3 	 mov ra, #1 @ 00000001
 813              	@ SG      G210
 814 0794 48438BE5 	 str ra, [rg, #+840] @ 00000348
 815              	@ SG      G211
 816 0798 4C438BE5 	 str ra, [rg, #+844] @ 0000034C
 817              	@ SG      G212
 818 079c 50438BE5 	 str ra, [rg, #+848] @ 00000350
 819              	@ ATB
 820 07a0 0450A0E1 	 mov rb, ra
 821              	@ LSH
 822 07a4 1F0054E3 	 cmp ra, #31
 823 07a8 0050A083 	 movhi rb, #0
 824 07ac 1544A0E1 	 mov ra, rb, lsl ra
 825              	@ JEQ0    L31
 826 07b0 000054E3 	 cmp ra, #0
 827 07b4 0802000A 	 beq LA31
 828              	@ LAB     L30
 829              	LA30:
 830              	@ IKG     K1 G210
ARM GAS  temps/cmpltest.s 			page 16


 831 07b8 48439BE5 	 ldr ra, [rg, #+840] @ 00000348
 832 07bc 014084E2 	 add ra, ra, #1 @ 00000001
 833 07c0 48438BE5 	 str ra, [rg, #+840] @ 00000348
 834              	@ LG      G211
 835 07c4 4C439BE5 	 ldr ra, [rg, #+844] @ 0000034C
 836              	@ ATBL    K1
 837 07c8 0450A0E1 	 mov rb, ra
 838 07cc 0140A0E3 	 mov ra, #1 @ 00000001
 839              	@ LSH
 840 07d0 1F0054E3 	 cmp ra, #31
 841 07d4 0050A083 	 movhi rb, #0
 842 07d8 1544A0E1 	 mov ra, rb, lsl ra
 843              	@ SG      G211
 844 07dc 4C438BE5 	 str ra, [rg, #+844] @ 0000034C
 845              	@ LG      G212
 846 07e0 50439BE5 	 ldr ra, [rg, #+848] @ 00000350
 847              	@ ATBL    K1
 848 07e4 0450A0E1 	 mov rb, ra
 849 07e8 0140A0E3 	 mov ra, #1 @ 00000001
 850              	@ LSH
 851 07ec 1F0054E3 	 cmp ra, #31
 852 07f0 0050A083 	 movhi rb, #0
 853 07f4 1544A0E1 	 mov ra, rb, lsl ra
 854              	@ ATBL    K1
 855 07f8 0450A0E1 	 mov rb, ra
 856 07fc 0140A0E3 	 mov ra, #1 @ 00000001
 857              	@ OR
 858 0800 044085E1 	 orr ra, rb, ra
 859              	@ SG      G212
 860 0804 50438BE5 	 str ra, [rg, #+848] @ 00000350
 861              	@ LG      G211
 862 0808 4C439BE5 	 ldr ra, [rg, #+844] @ 0000034C
 863              	@ ATBL    K1
 864 080c 0450A0E1 	 mov rb, ra
 865 0810 0140A0E3 	 mov ra, #1 @ 00000001
 866              	@ LSH
 867 0814 1F0054E3 	 cmp ra, #31
 868 0818 0050A083 	 movhi rb, #0
 869 081c 1544A0E1 	 mov ra, rb, lsl ra
 870              	@ JNE0    L30
 871 0820 000054E3 	 cmp ra, #0
 872 0824 EC01001A 	 bne LA30
 873              	@ LAB     L31
 874              	LA31:
 875              	@ LLP     P4
 876 0828 0440A0E3 	 mov ra, #4 @ 00000004
 877 082c 2A4184E0 	 add ra, ra, rp, lsr #2
 878              	@ ATBL    K0
 879 0830 0450A0E1 	 mov rb, ra
 880 0834 0040A0E3 	 mov ra, #0 @ 00000000
 881              	@ GBYT
 882 0838 0541D4E7 	 ldrb ra, [ra, rb, lsl #2]
 883              	@ ATBL    K65
 884 083c 0450A0E1 	 mov rb, ra
 885 0840 4140A0E3 	 mov ra, #65 @ 00000041
 886              	@ JNE     L32
 887 0844 040055E1 	 cmp rb, ra
ARM GAS  temps/cmpltest.s 			page 17


 888 0848 1E02001A 	 bne LA32
 889              	@ LSTR    M4
 890 084c 694F8FE2 	 adrl ra, MA4
 890      0000A0E1 
 891 0854 2441A0E1 	 mov ra, ra, lsr #2
 892              	@ ATB
 893 0858 0450A0E1 	 mov rb, ra
 894              	@ LF      L2
 895 085c 3C404FE2 	 adrl ra, LA2
 895      084C44E2 
 896              	@ K       P409
 897 0864 992F8AE2 	 add r2, rp, #612 @ 00000264
 898 0868 012B82E2 	 add r2, r2, #1024 @ 00000400
 899 086c 0410A0E1 	 mov r1, ra
 900 0870 0540A0E1 	 mov ra, rb
 901 0874 0FE0A0E1 	 mov lr, pc
 902 0878 01F0A0E1 	 mov pc, r1
 903              	@ J       L33
 904 087c 2A0200EA 	 b LA33
 905              	 .ltorg
 906              	
 907              	@ LAB     L32
 908              	LA32:
 909              	@ LSTR    M5
 910 0880 5E4F8FE2 	 adrl ra, MA5
 910      0000A0E1 
 911 0888 2441A0E1 	 mov ra, ra, lsr #2
 912              	@ ATB
 913 088c 0450A0E1 	 mov rb, ra
 914              	@ LF      L2
 915 0890 874E4FE2 	 adrl ra, LA2
 915      0000A0E1 
 916              	@ K       P409
 917 0898 992F8AE2 	 add r2, rp, #612 @ 00000264
 918 089c 012B82E2 	 add r2, r2, #1024 @ 00000400
 919 08a0 0410A0E1 	 mov r1, ra
 920 08a4 0540A0E1 	 mov ra, rb
 921 08a8 0FE0A0E1 	 mov lr, pc
 922 08ac 01F0A0E1 	 mov pc, r1
 923              	@ LAB     L33
 924              	LA33:
 925              	@ LSTR    M6
 926 08b0 534F8FE2 	 adrl ra, MA6
 926      0000A0E1 
 927 08b8 2441A0E1 	 mov ra, ra, lsr #2
 928              	@ ATB
 929 08bc 0450A0E1 	 mov rb, ra
 930              	@ LF      L2
 931 08c0 8A4E4FE2 	 adrl ra, LA2
 931      0000A0E1 
 932              	@ K       P409
 933 08c8 992F8AE2 	 add r2, rp, #612 @ 00000264
 934 08cc 012B82E2 	 add r2, r2, #1024 @ 00000400
 935 08d0 0410A0E1 	 mov r1, ra
 936 08d4 0540A0E1 	 mov ra, rb
 937 08d8 0FE0A0E1 	 mov lr, pc
 938 08dc 01F0A0E1 	 mov pc, r1
ARM GAS  temps/cmpltest.s 			page 18


 939              	@ LSTR    M7
 940 08e0 4B4F8FE2 	 adrl ra, MA7
 940      0000A0E1 
 941 08e8 2441A0E1 	 mov ra, ra, lsr #2
 942              	@ ATB
 943 08ec 0450A0E1 	 mov rb, ra
 944              	@ LF      L2
 945 08f0 8D4E4FE2 	 adrl ra, LA2
 945      0000A0E1 
 946              	@ K       P409
 947 08f8 992F8AE2 	 add r2, rp, #612 @ 00000264
 948 08fc 012B82E2 	 add r2, r2, #1024 @ 00000400
 949 0900 0410A0E1 	 mov r1, ra
 950 0904 0540A0E1 	 mov ra, rb
 951 0908 0FE0A0E1 	 mov lr, pc
 952 090c 01F0A0E1 	 mov pc, r1
 953              	@ L       K0
 954 0910 0040A0E3 	 mov ra, #0 @ 00000000
 955              	@ SP      P413
 956 0914 74468AE5 	 str ra, [rp, #+1652] @ 00000674
 957              	@ LG      G210
 958 0918 48439BE5 	 ldr ra, [rg, #+840] @ 00000348
 959              	@ ATB
 960 091c 0450A0E1 	 mov rb, ra
 961              	@ LF      L4
 962 0920 48404FE2 	 adrl ra, LA4
 962      084C44E2 
 963              	@ K       P409
 964 0928 992F8AE2 	 add r2, rp, #612 @ 00000264
 965 092c 012B82E2 	 add r2, r2, #1024 @ 00000400
 966 0930 0410A0E1 	 mov r1, ra
 967 0934 0540A0E1 	 mov ra, rb
 968 0938 0FE0A0E1 	 mov lr, pc
 969 093c 01F0A0E1 	 mov pc, r1
 970              	@ LSTR    M8
 971 0940 E0408FE2 	 adrl ra, MA8
 971      0000A0E1 
 972 0948 2441A0E1 	 mov ra, ra, lsr #2
 973              	@ ATB
 974 094c 0450A0E1 	 mov rb, ra
 975              	@ LF      L2
 976 0950 934E4FE2 	 adrl ra, LA2
 976      0000A0E1 
 977              	@ K       P409
 978 0958 992F8AE2 	 add r2, rp, #612 @ 00000264
 979 095c 012B82E2 	 add r2, r2, #1024 @ 00000400
 980 0960 0410A0E1 	 mov r1, ra
 981 0964 0540A0E1 	 mov ra, rb
 982 0968 0FE0A0E1 	 mov lr, pc
 983 096c 01F0A0E1 	 mov pc, r1
 984              	@ L       K10
 985 0970 0A40A0E3 	 mov ra, #10 @ 0000000A
 986              	@ SG      G250
 987 0974 E8438BE5 	 str ra, [rg, #+1000] @ 000003E8
 988              	@ L       K11
 989 0978 0B40A0E3 	 mov ra, #11 @ 0000000B
 990              	@ SG      G251
ARM GAS  temps/cmpltest.s 			page 19


 991 097c EC438BE5 	 str ra, [rg, #+1004] @ 000003EC
 992              	@ L       K12
 993 0980 0C40A0E3 	 mov ra, #12 @ 0000000C
 994              	@ SG      G252
 995 0984 F0438BE5 	 str ra, [rg, #+1008] @ 000003F0
 996              	@ L       K0
 997 0988 0040A0E3 	 mov ra, #0 @ 00000000
 998              	@ SG      G253
 999 098c F4438BE5 	 str ra, [rg, #+1012] @ 000003F4
 1000              	@ L       K1
 1001 0990 0140A0E3 	 mov ra, #1 @ 00000001
 1002              	@ SP      P413
 1003 0994 74468AE5 	 str ra, [rp, #+1652] @ 00000674
 1004              	@ L       K2
 1005 0998 0240A0E3 	 mov ra, #2 @ 00000002
 1006              	@ SP      P414
 1007 099c 78468AE5 	 str ra, [rp, #+1656] @ 00000678
 1008              	@ LP      P5
 1009 09a0 14409AE5 	 ldr ra, [rp, #+20] @ 00000014
 1010              	@ SP      P415
 1011 09a4 7C468AE5 	 str ra, [rp, #+1660] @ 0000067C
 1012              	@ LP      P6
 1013 09a8 18409AE5 	 ldr ra, [rp, #+24] @ 00000018
 1014              	@ SP      P416
 1015 09ac 80468AE5 	 str ra, [rp, #+1664] @ 00000680
 1016              	@ L       K0
 1017 09b0 0040A0E3 	 mov ra, #0 @ 00000000
 1018              	@ ATB
 1019 09b4 0450A0E1 	 mov rb, ra
 1020              	@ LF      L26
 1021 09b8 78408FE2 	 adrl ra, LA26
 1021      0000A0E1 
 1022              	@ K       P409
 1023 09c0 992F8AE2 	 add r2, rp, #612 @ 00000264
 1024 09c4 012B82E2 	 add r2, r2, #1024 @ 00000400
 1025 09c8 0410A0E1 	 mov r1, ra
 1026 09cc 0540A0E1 	 mov ra, rb
 1027 09d0 0FE0A0E1 	 mov lr, pc
 1028 09d4 01F0A0E1 	 mov pc, r1
 1029              	@ L       K0
 1030 09d8 0040A0E3 	 mov ra, #0 @ 00000000
 1031              	@ RTN
 1032 09dc 00849AE8 	 ldmia rp, {rp, pc}
 1033              	 .ltorg
 1034              	
 1035              	@ STRING  M3 K23 C10 C67 C109 C112 C108 C116 C101 C115 C116 C32 C114 C117 C110 C110 C105 C110 C103 
 1036              	MA3:
 1037 09e0 170A436D 	 .byte  23, 10, 67,109
 1038 09e4 706C7465 	 .byte 112,108,116,101
 1039 09e8 73742072 	 .byte 115,116, 32,114
 1040 09ec 756E6E69 	 .byte 117,110,110,105
 1041 09f0 6E67206F 	 .byte 110,103, 32,111
 1042 09f4 6E206120 	 .byte 110, 32, 97, 32
 1043              	@ STRING  M4 K6 C108 C105 C116 C116 C108 C101
 1044              	MA4:
 1045 09f8 066C6974 	 .byte   6,108,105,116
 1046 09fc 746C6500 	 .byte 116,108,101,  0
ARM GAS  temps/cmpltest.s 			page 20


 1047              	@ STRING  M5 K3 C98 C105 C103
 1048              	MA5:
 1049 0a00 03626967 	 .byte   3, 98,105,103
 1050              	@ STRING  M6 K15 C32 C101 C110 C100 C101 C114 C32 C109 C97 C99 C104 C105 C110 C101 C10
 1051              	MA6:
 1052 0a04 0F20656E 	 .byte  15, 32,101,110
 1053 0a08 64657220 	 .byte 100,101,114, 32
 1054 0a0c 6D616368 	 .byte 109, 97, 99,104
 1055 0a10 696E650A 	 .byte 105,110,101, 10
 1056              	@ STRING  M7 K17 C84 C104 C101 C32 C66 C67 C80 C76 C32 C119 C111 C114 C100 C32 C105 C115 C32
 1057              	MA7:
 1058 0a14 11546865 	 .byte  17, 84,104,101
 1059 0a18 20424350 	 .byte  32, 66, 67, 80
 1060 0a1c 4C20776F 	 .byte  76, 32,119,111
 1061 0a20 72642069 	 .byte 114,100, 32,105
 1062 0a24 73200000 	 .byte 115, 32,  0,  0
 1063              	@ STRING  M8 K13 C32 C98 C105 C116 C115 C32 C108 C111 C110 C103 C10 C10 C10
 1064              	MA8:
 1065 0a28 0D206269 	 .byte  13, 32, 98,105
 1066 0a2c 7473206C 	 .byte 116,115, 32,108
 1067 0a30 6F6E670A 	 .byte 111,110,103, 10
 1068 0a34 0A0A0000 	 .byte  10, 10,  0,  0
 1069              	
 1070              	@ Entry to: tester
 1071              	@ ENTRY   K6 C116 C101 C115 C116 C101 C114
 1072              	@ LAB     L26
 1073              	
 1074              	LA26:
 1075 0a38 0044A2E8 	 stmia r2!, {r10,lr}
 1076 0a3c 120082E8 	 stmia r2, {r1,ra}
 1077 0a40 08A042E2 	 sub rp, r2, #8
 1078              	@ L       K0
 1079 0a44 0040A0E3 	 mov ra, #0 @ 00000000
 1080              	@ SP      P8
 1081 0a48 20408AE5 	 str ra, [rp, #+32] @ 00000020
 1082              	@ L       K1
 1083 0a4c 0140A0E3 	 mov ra, #1 @ 00000001
 1084              	@ SP      P9
 1085 0a50 24408AE5 	 str ra, [rp, #+36] @ 00000024
 1086              	@ L       K2
 1087 0a54 0240A0E3 	 mov ra, #2 @ 00000002
 1088              	@ SP      P10
 1089 0a58 28408AE5 	 str ra, [rp, #+40] @ 00000028
 1090              	@ L       K3
 1091 0a5c 0340A0E3 	 mov ra, #3 @ 00000003
 1092              	@ SP      P11
 1093 0a60 2C408AE5 	 str ra, [rp, #+44] @ 0000002C
 1094              	@ L       K4
 1095 0a64 0440A0E3 	 mov ra, #4 @ 00000004
 1096              	@ SP      P12
 1097 0a68 30408AE5 	 str ra, [rp, #+48] @ 00000030
 1098              	@ L       K5
 1099 0a6c 0540A0E3 	 mov ra, #5 @ 00000005
 1100              	@ SP      P13
 1101 0a70 34408AE5 	 str ra, [rp, #+52] @ 00000034
 1102              	@ L       K6
 1103 0a74 0640A0E3 	 mov ra, #6 @ 00000006
ARM GAS  temps/cmpltest.s 			page 21


 1104              	@ SP      P14
 1105 0a78 38408AE5 	 str ra, [rp, #+56] @ 00000038
 1106              	@ L       K7
 1107 0a7c 0740A0E3 	 mov ra, #7 @ 00000007
 1108              	@ SP      P15
 1109 0a80 3C408AE5 	 str ra, [rp, #+60] @ 0000003C
 1110              	@ L       K8
 1111 0a84 0840A0E3 	 mov ra, #8 @ 00000008
 1112              	@ SP      P16
 1113 0a88 40408AE5 	 str ra, [rp, #+64] @ 00000040
 1114              	@ L       K9
 1115 0a8c 0940A0E3 	 mov ra, #9 @ 00000009
 1116              	@ SP      P17
 1117 0a90 44408AE5 	 str ra, [rp, #+68] @ 00000044
 1118              	@ L       K1021
 1119 0a94 FD40A0E3 	 mov ra, #253 @ 000000FD
 1120 0a98 034C84E3 	 orr ra, ra, #768 @ 00000300
 1121              	@ SP      P18
 1122 0a9c 48408AE5 	 str ra, [rp, #+72] @ 00000048
 1123              	@ LSTR    M9
 1124 0aa0 C0408FE2 	 adrl ra, MA9
 1124      404C84E2 
 1125 0aa8 2441A0E1 	 mov ra, ra, lsr #2
 1126              	@ ATB
 1127 0aac 0450A0E1 	 mov rb, ra
 1128              	@ LF      L2
 1129 0ab0 A94E4FE2 	 adrl ra, LA2
 1129      0000A0E1 
 1130              	@ K       P19
 1131 0ab8 4C208AE2 	 add r2, rp, #76 @ 0000004C
 1132 0abc 0410A0E1 	 mov r1, ra
 1133 0ac0 0540A0E1 	 mov ra, rb
 1134 0ac4 0FE0A0E1 	 mov lr, pc
 1135 0ac8 01F0A0E1 	 mov pc, r1
 1136              	@ L       K100
 1137 0acc 6440A0E3 	 mov ra, #100 @ 00000064
 1138              	@ SG      G200
 1139 0ad0 20438BE5 	 str ra, [rg, #+800] @ 00000320
 1140              	@ L       K101
 1141 0ad4 6540A0E3 	 mov ra, #101 @ 00000065
 1142              	@ SG      G401
 1143 0ad8 44468BE5 	 str ra, [rg, #+1604] @ 00000644
 1144              	@ L       K102
 1145 0adc 6640A0E3 	 mov ra, #102 @ 00000066
 1146              	@ SG      G602
 1147 0ae0 68498BE5 	 str ra, [rg, #+2408] @ 00000968
 1148              	@ L       K0
 1149 0ae4 0040A0E3 	 mov ra, #0 @ 00000000
 1150              	@ SG      G203
 1151 0ae8 2C438BE5 	 str ra, [rg, #+812] @ 0000032C
 1152              	@ SG      G206
 1153 0aec 38438BE5 	 str ra, [rg, #+824] @ 00000338
 1154              	@ SG      G204
 1155 0af0 30438BE5 	 str ra, [rg, #+816] @ 00000330
 1156              	@ LP      P6
 1157 0af4 18409AE5 	 ldr ra, [rp, #+24] @ 00000018
 1158              	@ SG      G205
ARM GAS  temps/cmpltest.s 			page 22


 1159 0af8 34438BE5 	 str ra, [rg, #+820] @ 00000334
 1160              	@ LP      P7
 1161 0afc 1C409AE5 	 ldr ra, [rp, #+28] @ 0000001C
 1162              	@ SG      G253
 1163 0b00 F4438BE5 	 str ra, [rg, #+1012] @ 000003F4
 1164              	@ L       K0
 1165 0b04 0040A0E3 	 mov ra, #0 @ 00000000
 1166              	@ SP      P19
 1167 0b08 4C408AE5 	 str ra, [rp, #+76] @ 0000004C
 1168              	@ LAB     L35
 1169              	LA35:
 1170              	@ L       K1000
 1171 0b0c FA4FA0E3 	 mov ra, #1000 @ 000003E8
 1172              	@ AP      P19
 1173 0b10 4C109AE5 	 ldr r1, [rp, #+76] @ 0000004C
 1174 0b14 014084E0 	 add ra, ra, r1
 1175              	@ ATB
 1176 0b18 0450A0E1 	 mov rb, ra
 1177              	@ LG      G205
 1178 0b1c 34439BE5 	 ldr ra, [rg, #+820] @ 00000334
 1179              	@ AP      P19
 1180 0b20 4C109AE5 	 ldr r1, [rp, #+76] @ 0000004C
 1181 0b24 014084E0 	 add ra, ra, r1
 1182              	@ ST
 1183 0b28 0010A0E3 	 mov r1, #0
 1184 0b2c 045181E7 	 str rb, [r1, ra, lsl #2]
 1185              	@ L       K10000
 1186 0b30 714EA0E3 	 mov ra, #1808 @ 00000710
 1187 0b34 024A84E3 	 orr ra, ra, #8192 @ 00002000
 1188              	@ AP      P19
 1189 0b38 4C109AE5 	 ldr r1, [rp, #+76] @ 0000004C
 1190 0b3c 014084E0 	 add ra, ra, r1
 1191              	@ ATB
 1192 0b40 0450A0E1 	 mov rb, ra
 1193              	@ LG      G253
 1194 0b44 F4439BE5 	 ldr ra, [rg, #+1012] @ 000003F4
 1195              	@ AP      P19
 1196 0b48 4C109AE5 	 ldr r1, [rp, #+76] @ 0000004C
 1197 0b4c 014084E0 	 add ra, ra, r1
 1198              	@ ST
 1199 0b50 0010A0E3 	 mov r1, #0
 1200 0b54 045181E7 	 str rb, [r1, ra, lsl #2]
 1201              	@ IKP     K1 P19
 1202 0b58 4C409AE5 	 ldr ra, [rp, #+76] @ 0000004C
 1203 0b5c 014084E2 	 add ra, ra, #1 @ 00000001
 1204 0b60 4C408AE5 	 str ra, [rp, #+76] @ 0000004C
 1205              	@ ATBL    K200
 1206 0b64 0450A0E1 	 mov rb, ra
 1207 0b68 C840A0E3 	 mov ra, #200 @ 000000C8
 1208              	@ JLE     L35
 1209 0b6c 040055E1 	 cmp rb, ra
 1210 0b70 C10200DA 	 ble LA35
 1211              	@ L       K0
 1212 0b74 0040A0E3 	 mov ra, #0 @ 00000000
 1213              	@ SG      G207
 1214 0b78 3C438BE5 	 str ra, [rg, #+828] @ 0000033C
 1215              	@ L       K1
ARM GAS  temps/cmpltest.s 			page 23


 1216 0b7c 0140A0E3 	 mov ra, #1 @ 00000001
 1217              	@ SG      G203
 1218 0b80 2C438BE5 	 str ra, [rg, #+812] @ 0000032C
 1219              	@ LG      G250
 1220 0b84 E8439BE5 	 ldr ra, [rg, #+1000] @ 000003E8
 1221              	@ AG      G251
 1222 0b88 EC139BE5 	 ldr r1, [rg, #+1004] @ 000003EC
 1223 0b8c 014084E0 	 add ra, ra, r1
 1224              	@ AG      G252
 1225 0b90 F0139BE5 	 ldr r1, [rg, #+1008] @ 000003F0
 1226 0b94 014084E0 	 add ra, ra, r1
 1227              	@ ATB
 1228 0b98 0450A0E1 	 mov rb, ra
 1229              	@ L       K33
 1230 0b9c 2140A0E3 	 mov ra, #33 @ 00000021
 1231              	@ SP      P23
 1232 0ba0 5C408AE5 	 str ra, [rp, #+92] @ 0000005C
 1233              	@ XCH
 1234 0ba4 0410A0E1 	 mov r1, ra
 1235 0ba8 0540A0E1 	 mov ra, rb
 1236 0bac 0150A0E1 	 mov rb, r1
 1237              	@ KPG     P19 G208
 1238 0bb0 40139BE5 	 ldr r1, [rg, #+832] @ 00000340
 1239 0bb4 4C208AE2 	 add r2, rp, #76 @ 0000004C
 1240 0bb8 0FE0A0E1 	 mov lr, pc
 1241 0bbc 01F0A0E1 	 mov pc, r1
 1242              	@ LG      G200
 1243 0bc0 20439BE5 	 ldr ra, [rg, #+800] @ 00000320
 1244              	@ AG      G401
 1245 0bc4 44169BE5 	 ldr r1, [rg, #+1604] @ 00000644
 1246 0bc8 014084E0 	 add ra, ra, r1
 1247              	@ AG      G602
 1248 0bcc 68199BE5 	 ldr r1, [rg, #+2408] @ 00000968
 1249 0bd0 014084E0 	 add ra, ra, r1
 1250              	@ ATB
 1251 0bd4 0450A0E1 	 mov rb, ra
 1252              	@ L       K303
 1253 0bd8 2F40A0E3 	 mov ra, #47 @ 0000002F
 1254 0bdc 014C84E3 	 orr ra, ra, #256 @ 00000100
 1255              	@ SP      P23
 1256 0be0 5C408AE5 	 str ra, [rp, #+92] @ 0000005C
 1257              	@ XCH
 1258 0be4 0410A0E1 	 mov r1, ra
 1259 0be8 0540A0E1 	 mov ra, rb
 1260 0bec 0150A0E1 	 mov rb, r1
 1261              	@ KPG     P19 G208
 1262 0bf0 40139BE5 	 ldr r1, [rg, #+832] @ 00000340
 1263 0bf4 4C208AE2 	 add r2, rp, #76 @ 0000004C
 1264 0bf8 0FE0A0E1 	 mov lr, pc
 1265 0bfc 01F0A0E1 	 mov pc, r1
 1266              	@ LP      P3
 1267 0c00 0C409AE5 	 ldr ra, [rp, #+12] @ 0000000C
 1268              	@ AP      P4
 1269 0c04 10109AE5 	 ldr r1, [rp, #+16] @ 00000010
 1270 0c08 014084E0 	 add ra, ra, r1
 1271              	@ AP      P5
 1272 0c0c 14109AE5 	 ldr r1, [rp, #+20] @ 00000014
ARM GAS  temps/cmpltest.s 			page 24


 1273 0c10 014084E0 	 add ra, ra, r1
 1274              	@ ATB
 1275 0c14 0450A0E1 	 mov rb, ra
 1276              	@ L       K3
 1277 0c18 0340A0E3 	 mov ra, #3 @ 00000003
 1278              	@ SP      P23
 1279 0c1c 5C408AE5 	 str ra, [rp, #+92] @ 0000005C
 1280              	@ XCH
 1281 0c20 0410A0E1 	 mov r1, ra
 1282 0c24 0540A0E1 	 mov ra, rb
 1283 0c28 0150A0E1 	 mov rb, r1
 1284              	@ KPG     P19 G208
 1285 0c2c 40139BE5 	 ldr r1, [rg, #+832] @ 00000340
 1286 0c30 4C208AE2 	 add r2, rp, #76 @ 0000004C
 1287 0c34 0FE0A0E1 	 mov lr, pc
 1288 0c38 01F0A0E1 	 mov pc, r1
 1289              	@ L       K44
 1290 0c3c 2C40A0E3 	 mov ra, #44 @ 0000002C
 1291              	@ SP      P23
 1292 0c40 5C408AE5 	 str ra, [rp, #+92] @ 0000005C
 1293              	@ KPG     P19 G208
 1294 0c44 40139BE5 	 ldr r1, [rg, #+832] @ 00000340
 1295 0c48 4C208AE2 	 add r2, rp, #76 @ 0000004C
 1296 0c4c 0FE0A0E1 	 mov lr, pc
 1297 0c50 01F0A0E1 	 mov pc, r1
 1298              	@ LP      P3
 1299 0c54 0C409AE5 	 ldr ra, [rp, #+12] @ 0000000C
 1300              	@ EQ
 1301 0c58 000054E3 	 cmp ra, #0
 1302 0c5c 0040E003 	 mvneq ra, #0
 1303 0c60 0040A013 	 movne ra, #0
 1304              	@ ATB
 1305 0c64 0450A0E1 	 mov rb, ra
 1306              	@ LM      K1
 1307 0c68 0040E0E3 	 mvn ra, #0 @ 00000000
 1308              	@ SP      P23
 1309 0c6c 5C408AE5 	 str ra, [rp, #+92] @ 0000005C
 1310              	@ XCH
 1311 0c70 0410A0E1 	 mov r1, ra
 1312 0c74 0540A0E1 	 mov ra, rb
 1313 0c78 0150A0E1 	 mov rb, r1
 1314              	@ KPG     P19 G208
 1315 0c7c 40139BE5 	 ldr r1, [rg, #+832] @ 00000340
 1316 0c80 4C208AE2 	 add r2, rp, #76 @ 0000004C
 1317 0c84 0FE0A0E1 	 mov lr, pc
 1318 0c88 01F0A0E1 	 mov pc, r1
 1319              	@ LP      P4
 1320 0c8c 10409AE5 	 ldr ra, [rp, #+16] @ 00000010
 1321              	@ EQ
 1322 0c90 000054E3 	 cmp ra, #0
 1323 0c94 0040E003 	 mvneq ra, #0
 1324 0c98 0040A013 	 movne ra, #0
 1325              	@ ATB
 1326 0c9c 0450A0E1 	 mov rb, ra
 1327              	@ L       K0
 1328 0ca0 0040A0E3 	 mov ra, #0 @ 00000000
 1329              	@ SP      P23
ARM GAS  temps/cmpltest.s 			page 25


 1330 0ca4 5C408AE5 	 str ra, [rp, #+92] @ 0000005C
 1331              	@ XCH
 1332 0ca8 0410A0E1 	 mov r1, ra
 1333 0cac 0540A0E1 	 mov ra, rb
 1334 0cb0 0150A0E1 	 mov rb, r1
 1335              	@ KPG     P19 G208
 1336 0cb4 40139BE5 	 ldr r1, [rg, #+832] @ 00000340
 1337 0cb8 4C208AE2 	 add r2, rp, #76 @ 0000004C
 1338 0cbc 0FE0A0E1 	 mov lr, pc
 1339 0cc0 01F0A0E1 	 mov pc, r1
 1340              	@ LLP     P4
 1341 0cc4 0440A0E3 	 mov ra, #4 @ 00000004
 1342 0cc8 2A4184E0 	 add ra, ra, rp, lsr #2
 1343              	@ RVP     P3
 1344 0ccc 0C109AE5 	 ldr r1, [rp, #+12] @ 0000000C
 1345 0cd0 0111A0E1 	 mov r1, r1, lsl #2
 1346 0cd4 044191E7 	 ldr ra, [r1, ra, lsl #2]
 1347              	@ ATB
 1348 0cd8 0450A0E1 	 mov rb, ra
 1349              	@ L       K1
 1350 0cdc 0140A0E3 	 mov ra, #1 @ 00000001
 1351              	@ SP      P23
 1352 0ce0 5C408AE5 	 str ra, [rp, #+92] @ 0000005C
 1353              	@ XCH
 1354 0ce4 0410A0E1 	 mov r1, ra
 1355 0ce8 0540A0E1 	 mov ra, rb
 1356 0cec 0150A0E1 	 mov rb, r1
 1357              	@ KPG     P19 G208
 1358 0cf0 40139BE5 	 ldr r1, [rg, #+832] @ 00000340
 1359 0cf4 4C208AE2 	 add r2, rp, #76 @ 0000004C
 1360 0cf8 0FE0A0E1 	 mov lr, pc
 1361 0cfc 01F0A0E1 	 mov pc, r1
 1362              	@ LLG     G251
 1363 0d00 FB40A0E3 	 mov ra, #251 @ 000000FB
 1364 0d04 2B4184E0 	 add ra, ra, rg, lsr #2
 1365              	@ RVP     P3
 1366 0d08 0C109AE5 	 ldr r1, [rp, #+12] @ 0000000C
 1367 0d0c 0111A0E1 	 mov r1, r1, lsl #2
 1368 0d10 044191E7 	 ldr ra, [r1, ra, lsl #2]
 1369              	@ ATB
 1370 0d14 0450A0E1 	 mov rb, ra
 1371              	@ L       K11
 1372 0d18 0B40A0E3 	 mov ra, #11 @ 0000000B
 1373              	@ SP      P23
 1374 0d1c 5C408AE5 	 str ra, [rp, #+92] @ 0000005C
 1375              	@ XCH
 1376 0d20 0410A0E1 	 mov r1, ra
 1377 0d24 0540A0E1 	 mov ra, rb
 1378 0d28 0150A0E1 	 mov rb, r1
 1379              	@ KPG     P19 G208
 1380 0d2c 40139BE5 	 ldr r1, [rg, #+832] @ 00000340
 1381 0d30 4C208AE2 	 add r2, rp, #76 @ 0000004C
 1382 0d34 0FE0A0E1 	 mov lr, pc
 1383 0d38 01F0A0E1 	 mov pc, r1
 1384              	@ LLG     G401
 1385 0d3c 9140A0E3 	 mov ra, #145 @ 00000091
 1386 0d40 014C84E3 	 orr ra, ra, #256 @ 00000100
ARM GAS  temps/cmpltest.s 			page 26


 1387 0d44 2B4184E0 	 add ra, ra, rg, lsr #2
 1388              	@ RVP     P3
 1389 0d48 0C109AE5 	 ldr r1, [rp, #+12] @ 0000000C
 1390 0d4c 0111A0E1 	 mov r1, r1, lsl #2
 1391 0d50 044191E7 	 ldr ra, [r1, ra, lsl #2]
 1392              	@ ATB
 1393 0d54 0450A0E1 	 mov rb, ra
 1394              	@ L       K101
 1395 0d58 6540A0E3 	 mov ra, #101 @ 00000065
 1396              	@ SP      P23
 1397 0d5c 5C408AE5 	 str ra, [rp, #+92] @ 0000005C
 1398              	@ XCH
 1399 0d60 0410A0E1 	 mov r1, ra
 1400 0d64 0540A0E1 	 mov ra, rb
 1401 0d68 0150A0E1 	 mov rb, r1
 1402              	@ KPG     P19 G208
 1403 0d6c 40139BE5 	 ldr r1, [rg, #+832] @ 00000340
 1404 0d70 4C208AE2 	 add r2, rp, #76 @ 0000004C
 1405 0d74 0FE0A0E1 	 mov lr, pc
 1406 0d78 01F0A0E1 	 mov pc, r1
 1407              	@ L       K5
 1408 0d7c 0540A0E3 	 mov ra, #5 @ 00000005
 1409              	@ SP      P3
 1410 0d80 0C408AE5 	 str ra, [rp, #+12] @ 0000000C
 1411              	@ L       K15
 1412 0d84 0F40A0E3 	 mov ra, #15 @ 0000000F
 1413              	@ SG      G250
 1414 0d88 E8438BE5 	 str ra, [rg, #+1000] @ 000003E8
 1415              	@ L       K105
 1416 0d8c 6940A0E3 	 mov ra, #105 @ 00000069
 1417              	@ SG      G200
 1418 0d90 20438BE5 	 str ra, [rg, #+800] @ 00000320
 1419              	@ L       K5
 1420 0d94 0540A0E3 	 mov ra, #5 @ 00000005
 1421              	@ SP      P23
 1422 0d98 5C408AE5 	 str ra, [rp, #+92] @ 0000005C
 1423              	@ LP      P3
 1424 0d9c 0C409AE5 	 ldr ra, [rp, #+12] @ 0000000C
 1425              	@ KPG     P19 G208
 1426 0da0 40139BE5 	 ldr r1, [rg, #+832] @ 00000340
 1427 0da4 4C208AE2 	 add r2, rp, #76 @ 0000004C
 1428 0da8 0FE0A0E1 	 mov lr, pc
 1429 0dac 01F0A0E1 	 mov pc, r1
 1430              	@ L       K15
 1431 0db0 0F40A0E3 	 mov ra, #15 @ 0000000F
 1432              	@ SP      P23
 1433 0db4 5C408AE5 	 str ra, [rp, #+92] @ 0000005C
 1434              	@ LG      G250
 1435 0db8 E8439BE5 	 ldr ra, [rg, #+1000] @ 000003E8
 1436              	@ KPG     P19 G208
 1437 0dbc 40139BE5 	 ldr r1, [rg, #+832] @ 00000340
 1438 0dc0 4C208AE2 	 add r2, rp, #76 @ 0000004C
 1439 0dc4 0FE0A0E1 	 mov lr, pc
 1440 0dc8 01F0A0E1 	 mov pc, r1
 1441              	@ L       K105
 1442 0dcc 6940A0E3 	 mov ra, #105 @ 00000069
 1443              	@ SP      P23
ARM GAS  temps/cmpltest.s 			page 27


 1444 0dd0 5C408AE5 	 str ra, [rp, #+92] @ 0000005C
 1445              	@ LG      G200
 1446 0dd4 20439BE5 	 ldr ra, [rg, #+800] @ 00000320
 1447              	@ KPG     P19 G208
 1448 0dd8 40139BE5 	 ldr r1, [rg, #+832] @ 00000340
 1449 0ddc 4C208AE2 	 add r2, rp, #76 @ 0000004C
 1450 0de0 0FE0A0E1 	 mov lr, pc
 1451 0de4 01F0A0E1 	 mov pc, r1
 1452              	@ L       K1234
 1453 0de8 D240A0E3 	 mov ra, #210 @ 000000D2
 1454 0dec 014B84E3 	 orr ra, ra, #1024 @ 00000400
 1455              	@ ATBLG   G205
 1456 0df0 0450A0E1 	 mov rb, ra
 1457 0df4 34439BE5 	 ldr ra, [rg, #+820] @ 00000334
 1458              	@ STK     K1
 1459 0df8 0410A0E3 	 mov r1, #4 @ 00000004
 1460 0dfc 045181E7 	 str rb, [r1, ra, lsl #2]
 1461              	@ L       K5678
 1462 0e00 2E40A0E3 	 mov ra, #46 @ 0000002E
 1463 0e04 164C84E3 	 orr ra, ra, #5632 @ 00001600
 1464              	@ ATBLG   G205
 1465 0e08 0450A0E1 	 mov rb, ra
 1466 0e0c 34439BE5 	 ldr ra, [rg, #+820] @ 00000334
 1467              	@ STK     K2
 1468 0e10 0810A0E3 	 mov r1, #8 @ 00000008
 1469 0e14 045181E7 	 str rb, [r1, ra, lsl #2]
 1470              	@ L       K1234
 1471 0e18 D240A0E3 	 mov ra, #210 @ 000000D2
 1472 0e1c 014B84E3 	 orr ra, ra, #1024 @ 00000400
 1473              	@ SP      P23
 1474 0e20 5C408AE5 	 str ra, [rp, #+92] @ 0000005C
 1475              	@ LKG     K1 G205
 1476 0e24 34439BE5 	 ldr ra, [rg, #+820] @ 00000334
 1477 0e28 0410A0E3 	 mov r1, #4 @ 00000004
 1478 0e2c 044191E7 	 ldr ra, [r1, ra, lsl #2]
 1479              	@ KPG     P19 G208
 1480 0e30 40139BE5 	 ldr r1, [rg, #+832] @ 00000340
 1481 0e34 4C208AE2 	 add r2, rp, #76 @ 0000004C
 1482 0e38 0FE0A0E1 	 mov lr, pc
 1483 0e3c 01F0A0E1 	 mov pc, r1
 1484              	@ LG      G205
 1485 0e40 34439BE5 	 ldr ra, [rg, #+820] @ 00000334
 1486              	@ RVP     P5
 1487 0e44 14109AE5 	 ldr r1, [rp, #+20] @ 00000014
 1488 0e48 0111A0E1 	 mov r1, r1, lsl #2
 1489 0e4c 044191E7 	 ldr ra, [r1, ra, lsl #2]
 1490              	@ ATB
 1491 0e50 0450A0E1 	 mov rb, ra
 1492              	@ L       K5678
 1493 0e54 2E40A0E3 	 mov ra, #46 @ 0000002E
 1494 0e58 164C84E3 	 orr ra, ra, #5632 @ 00001600
 1495              	@ SP      P23
 1496 0e5c 5C408AE5 	 str ra, [rp, #+92] @ 0000005C
 1497              	@ XCH
 1498 0e60 0410A0E1 	 mov r1, ra
 1499 0e64 0540A0E1 	 mov ra, rb
 1500 0e68 0150A0E1 	 mov rb, r1
ARM GAS  temps/cmpltest.s 			page 28


 1501              	@ KPG     P19 G208
 1502 0e6c 40139BE5 	 ldr r1, [rg, #+832] @ 00000340
 1503 0e70 4C208AE2 	 add r2, rp, #76 @ 0000004C
 1504 0e74 0FE0A0E1 	 mov lr, pc
 1505 0e78 01F0A0E1 	 mov pc, r1
 1506              	@ LG      G250
 1507 0e7c E8439BE5 	 ldr ra, [rg, #+1000] @ 000003E8
 1508              	@ ATBLP   P3
 1509 0e80 0450A0E1 	 mov rb, ra
 1510 0e84 0C409AE5 	 ldr ra, [rp, #+12] @ 0000000C
 1511              	@ MUL
 1512 0e88 950404E0 	 mul ra, rb, ra
 1513              	@ ATB
 1514 0e8c 0450A0E1 	 mov rb, ra
 1515              	@ L       K75
 1516 0e90 4B40A0E3 	 mov ra, #75 @ 0000004B
 1517              	@ SP      P23
 1518 0e94 5C408AE5 	 str ra, [rp, #+92] @ 0000005C
 1519              	@ XCH
 1520 0e98 0410A0E1 	 mov r1, ra
 1521 0e9c 0540A0E1 	 mov ra, rb
 1522 0ea0 0150A0E1 	 mov rb, r1
 1523              	@ KPG     P19 G208
 1524 0ea4 40139BE5 	 ldr r1, [rg, #+832] @ 00000340
 1525 0ea8 4C208AE2 	 add r2, rp, #76 @ 0000004C
 1526 0eac 0FE0A0E1 	 mov lr, pc
 1527 0eb0 01F0A0E1 	 mov pc, r1
 1528              	@ LP      P3
 1529 0eb4 0C409AE5 	 ldr ra, [rp, #+12] @ 0000000C
 1530              	@ ATBL    K1
 1531 0eb8 0450A0E1 	 mov rb, ra
 1532 0ebc 0140A0E3 	 mov ra, #1 @ 00000001
 1533              	@ MUL
 1534 0ec0 950404E0 	 mul ra, rb, ra
 1535              	@ SP      P22
 1536 0ec4 58408AE5 	 str ra, [rp, #+88] @ 00000058
 1537              	@ LP      P4
 1538 0ec8 10409AE5 	 ldr ra, [rp, #+16] @ 00000010
 1539              	@ ATBL    K2
 1540 0ecc 0450A0E1 	 mov rb, ra
 1541 0ed0 0240A0E3 	 mov ra, #2 @ 00000002
 1542              	@ MUL
 1543 0ed4 950404E0 	 mul ra, rb, ra
 1544              	@ AP      P22
 1545 0ed8 58109AE5 	 ldr r1, [rp, #+88] @ 00000058
 1546 0edc 014084E0 	 add ra, ra, r1
 1547              	@ SP      P22
 1548 0ee0 58408AE5 	 str ra, [rp, #+88] @ 00000058
 1549              	@ LP      P5
 1550 0ee4 14409AE5 	 ldr ra, [rp, #+20] @ 00000014
 1551              	@ ATBL    K3
 1552 0ee8 0450A0E1 	 mov rb, ra
 1553 0eec 0340A0E3 	 mov ra, #3 @ 00000003
 1554              	@ MUL
 1555 0ef0 950404E0 	 mul ra, rb, ra
 1556              	@ AP      P22
 1557 0ef4 58109AE5 	 ldr r1, [rp, #+88] @ 00000058
ARM GAS  temps/cmpltest.s 			page 29


 1558 0ef8 014084E0 	 add ra, ra, r1
 1559              	@ SP      P22
 1560 0efc 58408AE5 	 str ra, [rp, #+88] @ 00000058
 1561              	@ L       K4
 1562 0f00 0440A0E3 	 mov ra, #4 @ 00000004
 1563              	@ ATBLG   G200
 1564 0f04 0450A0E1 	 mov rb, ra
 1565 0f08 20439BE5 	 ldr ra, [rg, #+800] @ 00000320
 1566              	@ MUL
 1567 0f0c 950404E0 	 mul ra, rb, ra
 1568              	@ AP      P22
 1569 0f10 58109AE5 	 ldr r1, [rp, #+88] @ 00000058
 1570 0f14 014084E0 	 add ra, ra, r1
 1571              	@ ATB
 1572 0f18 0450A0E1 	 mov rb, ra
 1573              	@ L       K433
 1574 0f1c B140A0E3 	 mov ra, #177 @ 000000B1
 1575 0f20 014C84E3 	 orr ra, ra, #256 @ 00000100
 1576              	@ SP      P23
 1577 0f24 5C408AE5 	 str ra, [rp, #+92] @ 0000005C
 1578              	@ XCH
 1579 0f28 0410A0E1 	 mov r1, ra
 1580 0f2c 0540A0E1 	 mov ra, rb
 1581 0f30 0150A0E1 	 mov rb, r1
 1582              	@ KPG     P19 G208
 1583 0f34 40139BE5 	 ldr r1, [rg, #+832] @ 00000340
 1584 0f38 4C208AE2 	 add r2, rp, #76 @ 0000004C
 1585 0f3c 0FE0A0E1 	 mov lr, pc
 1586 0f40 01F0A0E1 	 mov pc, r1
 1587              	@ LG      G250
 1588 0f44 E8439BE5 	 ldr ra, [rg, #+1000] @ 000003E8
 1589              	@ ATBLP   P3
 1590 0f48 0450A0E1 	 mov rb, ra
 1591 0f4c 0C409AE5 	 ldr ra, [rp, #+12] @ 0000000C
 1592              	@ MUL
 1593 0f50 950404E0 	 mul ra, rb, ra
 1594              	@ SP      P22
 1595 0f54 58408AE5 	 str ra, [rp, #+88] @ 00000058
 1596              	@ LP      P3
 1597 0f58 0C409AE5 	 ldr ra, [rp, #+12] @ 0000000C
 1598              	@ MUL
 1599 0f5c 950404E0 	 mul ra, rb, ra
 1600              	@ AP      P22
 1601 0f60 58109AE5 	 ldr r1, [rp, #+88] @ 00000058
 1602 0f64 014084E0 	 add ra, ra, r1
 1603              	@ ATB
 1604 0f68 0450A0E1 	 mov rb, ra
 1605              	@ L       K150
 1606 0f6c 9640A0E3 	 mov ra, #150 @ 00000096
 1607              	@ SP      P23
 1608 0f70 5C408AE5 	 str ra, [rp, #+92] @ 0000005C
 1609              	@ XCH
 1610 0f74 0410A0E1 	 mov r1, ra
 1611 0f78 0540A0E1 	 mov ra, rb
 1612 0f7c 0150A0E1 	 mov rb, r1
 1613              	@ KPG     P19 G208
 1614 0f80 40139BE5 	 ldr r1, [rg, #+832] @ 00000340
ARM GAS  temps/cmpltest.s 			page 30


 1615 0f84 4C208AE2 	 add r2, rp, #76 @ 0000004C
 1616 0f88 0FE0A0E1 	 mov lr, pc
 1617 0f8c 01F0A0E1 	 mov pc, r1
 1618              	@ LG      G250
 1619 0f90 E8439BE5 	 ldr ra, [rg, #+1000] @ 000003E8
 1620              	@ ATBLG   G250
 1621 0f94 0450A0E1 	 mov rb, ra
 1622 0f98 E8439BE5 	 ldr ra, [rg, #+1000] @ 000003E8
 1623              	@ SUB
 1624 0f9c 044045E0 	 sub ra, rb, ra
 1625              	@ A       K2
 1626 0fa0 024084E2 	 add ra, ra, #2 @ 00000002
 1627              	@ ATBL    K100
 1628 0fa4 0450A0E1 	 mov rb, ra
 1629 0fa8 6440A0E3 	 mov ra, #100 @ 00000064
 1630              	@ XDIV
 1631 0fac 0500A0E1 	 mov r0, rb
 1632 0fb0 0410A0E1 	 mov r1, ra
 1633 0fb4 00209FE5 	 ldr r2, [pc]
 1634 0fb8 0FF0A0E1 	 mov pc, pc
 1635 0fbc 00000000 	 .long divrem
 1636 0fc0 0FE0A0E1 	 mov lr, pc
 1637 0fc4 02F0A0E1 	 mov pc, r2
 1638 0fc8 0040A0E1 	 mov ra, r0
 1639              	@ ATB
 1640 0fcc 0450A0E1 	 mov rb, ra
 1641              	@ L       K50
 1642 0fd0 3240A0E3 	 mov ra, #50 @ 00000032
 1643              	@ SP      P23
 1644 0fd4 5C408AE5 	 str ra, [rp, #+92] @ 0000005C
 1645              	@ XCH
 1646 0fd8 0410A0E1 	 mov r1, ra
 1647 0fdc 0540A0E1 	 mov ra, rb
 1648 0fe0 0150A0E1 	 mov rb, r1
 1649              	@ KPG     P19 G208
 1650 0fe4 40139BE5 	 ldr r1, [rg, #+832] @ 00000340
 1651 0fe8 4C208AE2 	 add r2, rp, #76 @ 0000004C
 1652 0fec 0FE0A0E1 	 mov lr, pc
 1653 0ff0 01F0A0E1 	 mov pc, r1
 1654              	@ LG      G250
 1655 0ff4 E8439BE5 	 ldr ra, [rg, #+1000] @ 000003E8
 1656              	@ ATBLP   P3
 1657 0ff8 0450A0E1 	 mov rb, ra
 1658 0ffc 0C409AE5 	 ldr ra, [rp, #+12] @ 0000000C
 1659              	@ DIV
 1660 1000 0400A0E1 	 mov r0, ra
 1661 1004 0510A0E1 	 mov r1, rb
 1662 1008 00209FE5 	 ldr r2, [pc]
 1663 100c 0FF0A0E1 	 mov pc, pc
 1664 1010 00000000 	 .long divrem
 1665 1014 0FE0A0E1 	 mov lr, pc
 1666 1018 02F0A0E1 	 mov pc, r2
 1667 101c 0040A0E1 	 mov ra, r0
 1668              	@ ATB
 1669 1020 0450A0E1 	 mov rb, ra
 1670              	@ L       K3
 1671 1024 0340A0E3 	 mov ra, #3 @ 00000003
ARM GAS  temps/cmpltest.s 			page 31


 1672              	@ SP      P23
 1673 1028 5C408AE5 	 str ra, [rp, #+92] @ 0000005C
 1674              	@ XCH
 1675 102c 0410A0E1 	 mov r1, ra
 1676 1030 0540A0E1 	 mov ra, rb
 1677 1034 0150A0E1 	 mov rb, r1
 1678              	@ KPG     P19 G208
 1679 1038 40139BE5 	 ldr r1, [rg, #+832] @ 00000340
 1680 103c 4C208AE2 	 add r2, rp, #76 @ 0000004C
 1681 1040 0FE0A0E1 	 mov lr, pc
 1682 1044 01F0A0E1 	 mov pc, r1
 1683              	@ LP      P3
 1684 1048 0C409AE5 	 ldr ra, [rp, #+12] @ 0000000C
 1685              	@ NEG
 1686 104c 004064E2 	 rsb ra, ra, #0
 1687              	@ ATBLG   G250
 1688 1050 0450A0E1 	 mov rb, ra
 1689 1054 E8439BE5 	 ldr ra, [rg, #+1000] @ 000003E8
 1690              	@ XDIV
 1691 1058 0500A0E1 	 mov r0, rb
 1692 105c 0410A0E1 	 mov r1, ra
 1693 1060 00209FE5 	 ldr r2, [pc]
 1694 1064 0FF0A0E1 	 mov pc, pc
 1695 1068 00000000 	 .long divrem
 1696 106c 0FE0A0E1 	 mov lr, pc
 1697 1070 02F0A0E1 	 mov pc, r2
 1698 1074 0040A0E1 	 mov ra, r0
 1699              	@ ATB
 1700 1078 0450A0E1 	 mov rb, ra
 1701              	@ LM      K3
 1702 107c 0240E0E3 	 mvn ra, #2 @ 00000002
 1703              	@ SP      P23
 1704 1080 5C408AE5 	 str ra, [rp, #+92] @ 0000005C
 1705              	@ XCH
 1706 1084 0410A0E1 	 mov r1, ra
 1707 1088 0540A0E1 	 mov ra, rb
 1708 108c 0150A0E1 	 mov rb, r1
 1709              	@ KPG     P19 G208
 1710 1090 40139BE5 	 ldr r1, [rg, #+832] @ 00000340
 1711 1094 4C208AE2 	 add r2, rp, #76 @ 0000004C
 1712 1098 0FE0A0E1 	 mov lr, pc
 1713 109c 01F0A0E1 	 mov pc, r1
 1714              	@ LG      G250
 1715 10a0 E8439BE5 	 ldr ra, [rg, #+1000] @ 000003E8
 1716              	@ NEG
 1717 10a4 004064E2 	 rsb ra, ra, #0
 1718              	@ ATBLP   P3
 1719 10a8 0450A0E1 	 mov rb, ra
 1720 10ac 0C409AE5 	 ldr ra, [rp, #+12] @ 0000000C
 1721              	@ DIV
 1722 10b0 0400A0E1 	 mov r0, ra
 1723 10b4 0510A0E1 	 mov r1, rb
 1724 10b8 00209FE5 	 ldr r2, [pc]
 1725 10bc 0FF0A0E1 	 mov pc, pc
 1726 10c0 00000000 	 .long divrem
 1727 10c4 0FE0A0E1 	 mov lr, pc
 1728 10c8 02F0A0E1 	 mov pc, r2
ARM GAS  temps/cmpltest.s 			page 32


 1729 10cc 0040A0E1 	 mov ra, r0
 1730              	@ ATB
 1731 10d0 0450A0E1 	 mov rb, ra
 1732              	@ LM      K3
 1733 10d4 0240E0E3 	 mvn ra, #2 @ 00000002
 1734              	@ SP      P23
 1735 10d8 5C408AE5 	 str ra, [rp, #+92] @ 0000005C
 1736              	@ XCH
 1737 10dc 0410A0E1 	 mov r1, ra
 1738 10e0 0540A0E1 	 mov ra, rb
 1739 10e4 0150A0E1 	 mov rb, r1
 1740              	@ KPG     P19 G208
 1741 10e8 40139BE5 	 ldr r1, [rg, #+832] @ 00000340
 1742 10ec 4C208AE2 	 add r2, rp, #76 @ 0000004C
 1743 10f0 0FE0A0E1 	 mov lr, pc
 1744 10f4 01F0A0E1 	 mov pc, r1
 1745              	@ LG      G250
 1746 10f8 E8439BE5 	 ldr ra, [rg, #+1000] @ 000003E8
 1747              	@ NEG
 1748 10fc 004064E2 	 rsb ra, ra, #0
 1749              	@ SP      P22
 1750 1100 58408AE5 	 str ra, [rp, #+88] @ 00000058
 1751              	@ LP      P3
 1752 1104 0C409AE5 	 ldr ra, [rp, #+12] @ 0000000C
 1753              	@ NEG
 1754 1108 004064E2 	 rsb ra, ra, #0
 1755              	@ ATBLP   P22
 1756 110c 0450A0E1 	 mov rb, ra
 1757 1110 58409AE5 	 ldr ra, [rp, #+88] @ 00000058
 1758              	@ XDIV
 1759 1114 0500A0E1 	 mov r0, rb
 1760 1118 0410A0E1 	 mov r1, ra
 1761 111c 00209FE5 	 ldr r2, [pc]
 1762 1120 0FF0A0E1 	 mov pc, pc
 1763 1124 00000000 	 .long divrem
 1764 1128 0FE0A0E1 	 mov lr, pc
 1765 112c 02F0A0E1 	 mov pc, r2
 1766 1130 0040A0E1 	 mov ra, r0
 1767              	@ ATB
 1768 1134 0450A0E1 	 mov rb, ra
 1769              	@ L       K3
 1770 1138 0340A0E3 	 mov ra, #3 @ 00000003
 1771              	@ SP      P23
 1772 113c 5C408AE5 	 str ra, [rp, #+92] @ 0000005C
 1773              	@ XCH
 1774 1140 0410A0E1 	 mov r1, ra
 1775 1144 0540A0E1 	 mov ra, rb
 1776 1148 0150A0E1 	 mov rb, r1
 1777              	@ KPG     P19 G208
 1778 114c 40139BE5 	 ldr r1, [rg, #+832] @ 00000340
 1779 1150 4C208AE2 	 add r2, rp, #76 @ 0000004C
 1780 1154 0FE0A0E1 	 mov lr, pc
 1781 1158 01F0A0E1 	 mov pc, r1
 1782              	@ LG      G250
 1783 115c E8439BE5 	 ldr ra, [rg, #+1000] @ 000003E8
 1784              	@ AG      G250
 1785 1160 E8139BE5 	 ldr r1, [rg, #+1000] @ 000003E8
ARM GAS  temps/cmpltest.s 			page 33


 1786 1164 014084E0 	 add ra, ra, r1
 1787              	@ ATBLG   G250
 1788 1168 0450A0E1 	 mov rb, ra
 1789 116c E8439BE5 	 ldr ra, [rg, #+1000] @ 000003E8
 1790              	@ DIV
 1791 1170 0400A0E1 	 mov r0, ra
 1792 1174 0510A0E1 	 mov r1, rb
 1793 1178 00209FE5 	 ldr r2, [pc]
 1794 117c 0FF0A0E1 	 mov pc, pc
 1795 1180 00000000 	 .long divrem
 1796 1184 0FE0A0E1 	 mov lr, pc
 1797 1188 02F0A0E1 	 mov pc, r2
 1798 118c 0040A0E1 	 mov ra, r0
 1799              	@ ATB
 1800 1190 0450A0E1 	 mov rb, ra
 1801              	@ L       K2
 1802 1194 0240A0E3 	 mov ra, #2 @ 00000002
 1803              	@ SP      P23
 1804 1198 5C408AE5 	 str ra, [rp, #+92] @ 0000005C
 1805              	@ XCH
 1806 119c 0410A0E1 	 mov r1, ra
 1807 11a0 0540A0E1 	 mov ra, rb
 1808 11a4 0150A0E1 	 mov rb, r1
 1809              	@ KPG     P19 G208
 1810 11a8 40139BE5 	 ldr r1, [rg, #+832] @ 00000340
 1811 11ac 4C208AE2 	 add r2, rp, #76 @ 0000004C
 1812 11b0 0FE0A0E1 	 mov lr, pc
 1813 11b4 01F0A0E1 	 mov pc, r1
 1814              	@ LP      P3
 1815 11b8 0C409AE5 	 ldr ra, [rp, #+12] @ 0000000C
 1816              	@ ATBLG   G250
 1817 11bc 0450A0E1 	 mov rb, ra
 1818 11c0 E8439BE5 	 ldr ra, [rg, #+1000] @ 000003E8
 1819              	@ MUL
 1820 11c4 950404E0 	 mul ra, rb, ra
 1821              	@ SP      P22
 1822 11c8 58408AE5 	 str ra, [rp, #+88] @ 00000058
 1823              	@ LG      G250
 1824 11cc E8439BE5 	 ldr ra, [rg, #+1000] @ 000003E8
 1825              	@ MUL
 1826 11d0 950404E0 	 mul ra, rb, ra
 1827              	@ ATBLP   P22
 1828 11d4 0450A0E1 	 mov rb, ra
 1829 11d8 58409AE5 	 ldr ra, [rp, #+88] @ 00000058
 1830              	@ XDIV
 1831 11dc 0500A0E1 	 mov r0, rb
 1832 11e0 0410A0E1 	 mov r1, ra
 1833 11e4 00209FE5 	 ldr r2, [pc]
 1834 11e8 0FF0A0E1 	 mov pc, pc
 1835 11ec 00000000 	 .long divrem
 1836 11f0 0FE0A0E1 	 mov lr, pc
 1837 11f4 02F0A0E1 	 mov pc, r2
 1838 11f8 0040A0E1 	 mov ra, r0
 1839              	@ ATB
 1840 11fc 0450A0E1 	 mov rb, ra
 1841              	@ L       K1
 1842 1200 0140A0E3 	 mov ra, #1 @ 00000001
ARM GAS  temps/cmpltest.s 			page 34


 1843              	@ SP      P23
 1844 1204 5C408AE5 	 str ra, [rp, #+92] @ 0000005C
 1845              	@ XCH
 1846 1208 0410A0E1 	 mov r1, ra
 1847 120c 0540A0E1 	 mov ra, rb
 1848 1210 0150A0E1 	 mov rb, r1
 1849              	@ KPG     P19 G208
 1850 1214 40139BE5 	 ldr r1, [rg, #+832] @ 00000340
 1851 1218 4C208AE2 	 add r2, rp, #76 @ 0000004C
 1852 121c 0FE0A0E1 	 mov lr, pc
 1853 1220 01F0A0E1 	 mov pc, r1
 1854              	@ LG      G250
 1855 1224 E8439BE5 	 ldr ra, [rg, #+1000] @ 000003E8
 1856              	@ AG      G251
 1857 1228 EC139BE5 	 ldr r1, [rg, #+1004] @ 000003EC
 1858 122c 014084E0 	 add ra, ra, r1
 1859              	@ SP      P22
 1860 1230 58408AE5 	 str ra, [rp, #+88] @ 00000058
 1861              	@ LP      P3
 1862 1234 0C409AE5 	 ldr ra, [rp, #+12] @ 0000000C
 1863              	@ AP      P4
 1864 1238 10109AE5 	 ldr r1, [rp, #+16] @ 00000010
 1865 123c 014084E0 	 add ra, ra, r1
 1866              	@ ATBLP   P22
 1867 1240 0450A0E1 	 mov rb, ra
 1868 1244 58409AE5 	 ldr ra, [rp, #+88] @ 00000058
 1869              	@ MUL
 1870 1248 950404E0 	 mul ra, rb, ra
 1871              	@ ATBL    K123
 1872 124c 0450A0E1 	 mov rb, ra
 1873 1250 7B40A0E3 	 mov ra, #123 @ 0000007B
 1874              	@ MUL
 1875 1254 950404E0 	 mul ra, rb, ra
 1876              	@ ATBL    K738
 1877 1258 0450A0E1 	 mov rb, ra
 1878 125c E240A0E3 	 mov ra, #226 @ 000000E2
 1879 1260 024C84E3 	 orr ra, ra, #512 @ 00000200
 1880              	@ DIV
 1881 1264 0400A0E1 	 mov r0, ra
 1882 1268 0510A0E1 	 mov r1, rb
 1883 126c 00209FE5 	 ldr r2, [pc]
 1884 1270 0FF0A0E1 	 mov pc, pc
 1885 1274 00000000 	 .long divrem
 1886 1278 0FE0A0E1 	 mov lr, pc
 1887 127c 02F0A0E1 	 mov pc, r2
 1888 1280 0040A0E1 	 mov ra, r0
 1889              	@ ATB
 1890 1284 0450A0E1 	 mov rb, ra
 1891              	@ L       K26
 1892 1288 1A40A0E3 	 mov ra, #26 @ 0000001A
 1893              	@ SP      P23
 1894 128c 5C408AE5 	 str ra, [rp, #+92] @ 0000005C
 1895              	@ XCH
 1896 1290 0410A0E1 	 mov r1, ra
 1897 1294 0540A0E1 	 mov ra, rb
 1898 1298 0150A0E1 	 mov rb, r1
 1899              	@ KPG     P19 G208
ARM GAS  temps/cmpltest.s 			page 35


 1900 129c 40139BE5 	 ldr r1, [rg, #+832] @ 00000340
 1901 12a0 4C208AE2 	 add r2, rp, #76 @ 0000004C
 1902 12a4 0FE0A0E1 	 mov lr, pc
 1903 12a8 01F0A0E1 	 mov pc, r1
 1904              	@ LP      P15
 1905 12ac 3C409AE5 	 ldr ra, [rp, #+60] @ 0000003C
 1906              	@ ATBL    K2
 1907 12b0 0450A0E1 	 mov rb, ra
 1908 12b4 0240A0E3 	 mov ra, #2 @ 00000002
 1909              	@ REM
 1910 12b8 0400A0E1 	 mov r0, ra
 1911 12bc 0510A0E1 	 mov r1, rb
 1912 12c0 00209FE5 	 ldr r2, [pc]
 1913 12c4 0FF0A0E1 	 mov pc, pc
 1914 12c8 00000000 	 .long divrem
 1915 12cc 0FE0A0E1 	 mov lr, pc
 1916 12d0 02F0A0E1 	 mov pc, r2
 1917 12d4 0140A0E1 	 mov ra, r1
 1918              	@ ATB
 1919 12d8 0450A0E1 	 mov rb, ra
 1920              	@ L       K1
 1921 12dc 0140A0E3 	 mov ra, #1 @ 00000001
 1922              	@ SP      P23
 1923 12e0 5C408AE5 	 str ra, [rp, #+92] @ 0000005C
 1924              	@ XCH
 1925 12e4 0410A0E1 	 mov r1, ra
 1926 12e8 0540A0E1 	 mov ra, rb
 1927 12ec 0150A0E1 	 mov rb, r1
 1928              	@ KPG     P19 G208
 1929 12f0 40139BE5 	 ldr r1, [rg, #+832] @ 00000340
 1930 12f4 4C208AE2 	 add r2, rp, #76 @ 0000004C
 1931 12f8 0FE0A0E1 	 mov lr, pc
 1932 12fc 01F0A0E1 	 mov pc, r1
 1933              	@ LG      G200
 1934 1300 20439BE5 	 ldr ra, [rg, #+800] @ 00000320
 1935              	@ ATBL    K100
 1936 1304 0450A0E1 	 mov rb, ra
 1937 1308 6440A0E3 	 mov ra, #100 @ 00000064
 1938              	@ REM
 1939 130c 0400A0E1 	 mov r0, ra
 1940 1310 0510A0E1 	 mov r1, rb
 1941 1314 00209FE5 	 ldr r2, [pc]
 1942 1318 0FF0A0E1 	 mov pc, pc
 1943 131c 00000000 	 .long divrem
 1944 1320 0FE0A0E1 	 mov lr, pc
 1945 1324 02F0A0E1 	 mov pc, r2
 1946 1328 0140A0E1 	 mov ra, r1
 1947              	@ ATB
 1948 132c 0450A0E1 	 mov rb, ra
 1949              	@ L       K5
 1950 1330 0540A0E3 	 mov ra, #5 @ 00000005
 1951              	@ SP      P23
 1952 1334 5C408AE5 	 str ra, [rp, #+92] @ 0000005C
 1953              	@ XCH
 1954 1338 0410A0E1 	 mov r1, ra
 1955 133c 0540A0E1 	 mov ra, rb
 1956 1340 0150A0E1 	 mov rb, r1
ARM GAS  temps/cmpltest.s 			page 36


 1957              	@ KPG     P19 G208
 1958 1344 40139BE5 	 ldr r1, [rg, #+832] @ 00000340
 1959 1348 4C208AE2 	 add r2, rp, #76 @ 0000004C
 1960 134c 0FE0A0E1 	 mov lr, pc
 1961 1350 01F0A0E1 	 mov pc, r1
 1962              	@ LG      G250
 1963 1354 E8439BE5 	 ldr ra, [rg, #+1000] @ 000003E8
 1964              	@ ATBLP   P3
 1965 1358 0450A0E1 	 mov rb, ra
 1966 135c 0C409AE5 	 ldr ra, [rp, #+12] @ 0000000C
 1967              	@ REM
 1968 1360 0400A0E1 	 mov r0, ra
 1969 1364 0510A0E1 	 mov r1, rb
 1970 1368 00209FE5 	 ldr r2, [pc]
 1971 136c 0FF0A0E1 	 mov pc, pc
 1972 1370 00000000 	 .long divrem
 1973 1374 0FE0A0E1 	 mov lr, pc
 1974 1378 02F0A0E1 	 mov pc, r2
 1975 137c 0140A0E1 	 mov ra, r1
 1976              	@ ATB
 1977 1380 0450A0E1 	 mov rb, ra
 1978              	@ L       K0
 1979 1384 0040A0E3 	 mov ra, #0 @ 00000000
 1980              	@ SP      P23
 1981 1388 5C408AE5 	 str ra, [rp, #+92] @ 0000005C
 1982              	@ XCH
 1983 138c 0410A0E1 	 mov r1, ra
 1984 1390 0540A0E1 	 mov ra, rb
 1985 1394 0150A0E1 	 mov rb, r1
 1986              	@ KPG     P19 G208
 1987 1398 40139BE5 	 ldr r1, [rg, #+832] @ 00000340
 1988 139c 4C208AE2 	 add r2, rp, #76 @ 0000004C
 1989 13a0 0FE0A0E1 	 mov lr, pc
 1990 13a4 01F0A0E1 	 mov pc, r1
 1991              	@ LG      G200
 1992 13a8 20439BE5 	 ldr ra, [rg, #+800] @ 00000320
 1993              	@ NEG
 1994 13ac 004064E2 	 rsb ra, ra, #0
 1995              	@ ATB
 1996 13b0 0450A0E1 	 mov rb, ra
 1997              	@ LM      K105
 1998 13b4 6840E0E3 	 mvn ra, #104 @ 00000068
 1999              	@ SP      P23
 2000 13b8 5C408AE5 	 str ra, [rp, #+92] @ 0000005C
 2001              	@ XCH
 2002 13bc 0410A0E1 	 mov r1, ra
 2003 13c0 0540A0E1 	 mov ra, rb
 2004 13c4 0150A0E1 	 mov rb, r1
 2005              	@ KPG     P19 G208
 2006 13c8 40139BE5 	 ldr r1, [rg, #+832] @ 00000340
 2007 13cc 4C208AE2 	 add r2, rp, #76 @ 0000004C
 2008 13d0 0FE0A0E1 	 mov lr, pc
 2009 13d4 01F0A0E1 	 mov pc, r1
 2010              	@ L       K105
 2011 13d8 6940A0E3 	 mov ra, #105 @ 00000069
 2012              	@ SG      G200
 2013 13dc 20438BE5 	 str ra, [rg, #+800] @ 00000320
ARM GAS  temps/cmpltest.s 			page 37


 2014              	@ ATB
 2015 13e0 0450A0E1 	 mov rb, ra
 2016              	@ EQ
 2017 13e4 040055E1 	 cmp rb, ra
 2018 13e8 0040E003 	 mvneq ra, #0
 2019 13ec 0040A013 	 movne ra, #0
 2020              	@ ATB
 2021 13f0 0450A0E1 	 mov rb, ra
 2022              	@ LM      K1
 2023 13f4 0040E0E3 	 mvn ra, #0 @ 00000000
 2024              	@ SP      P23
 2025 13f8 5C408AE5 	 str ra, [rp, #+92] @ 0000005C
 2026              	@ XCH
 2027 13fc 0410A0E1 	 mov r1, ra
 2028 1400 0540A0E1 	 mov ra, rb
 2029 1404 0150A0E1 	 mov rb, r1
 2030              	@ KPG     P19 G208
 2031 1408 40139BE5 	 ldr r1, [rg, #+832] @ 00000340
 2032 140c 4C208AE2 	 add r2, rp, #76 @ 0000004C
 2033 1410 0FE0A0E1 	 mov lr, pc
 2034 1414 01F0A0E1 	 mov pc, r1
 2035              	@ L       K105
 2036 1418 6940A0E3 	 mov ra, #105 @ 00000069
 2037              	@ ATBLG   G200
 2038 141c 0450A0E1 	 mov rb, ra
 2039 1420 20439BE5 	 ldr ra, [rg, #+800] @ 00000320
 2040              	@ NE
 2041 1424 054054E0 	 subs ra, ra, rb
 2042 1428 0040E013 	 mvnne ra, #0
 2043              	@ ATB
 2044 142c 0450A0E1 	 mov rb, ra
 2045              	@ L       K0
 2046 1430 0040A0E3 	 mov ra, #0 @ 00000000
 2047              	@ SP      P23
 2048 1434 5C408AE5 	 str ra, [rp, #+92] @ 0000005C
 2049              	@ XCH
 2050 1438 0410A0E1 	 mov r1, ra
 2051 143c 0540A0E1 	 mov ra, rb
 2052 1440 0150A0E1 	 mov rb, r1
 2053              	@ KPG     P19 G208
 2054 1444 40139BE5 	 ldr r1, [rg, #+832] @ 00000340
 2055 1448 4C208AE2 	 add r2, rp, #76 @ 0000004C
 2056 144c 0FE0A0E1 	 mov lr, pc
 2057 1450 01F0A0E1 	 mov pc, r1
 2058              	@ LG      G200
 2059 1454 20439BE5 	 ldr ra, [rg, #+800] @ 00000320
 2060              	@ ATBL    K105
 2061 1458 0450A0E1 	 mov rb, ra
 2062 145c 6940A0E3 	 mov ra, #105 @ 00000069
 2063              	@ LS
 2064 1460 040055E1 	 cmp rb, ra
 2065 1464 0040E0B3 	 mvnlt ra, #0
 2066 1468 0040A0A3 	 movge ra, #0
 2067              	@ ATB
 2068 146c 0450A0E1 	 mov rb, ra
 2069              	@ L       K0
 2070 1470 0040A0E3 	 mov ra, #0 @ 00000000
ARM GAS  temps/cmpltest.s 			page 38


 2071              	@ SP      P23
 2072 1474 5C408AE5 	 str ra, [rp, #+92] @ 0000005C
 2073              	@ XCH
 2074 1478 0410A0E1 	 mov r1, ra
 2075 147c 0540A0E1 	 mov ra, rb
 2076 1480 0150A0E1 	 mov rb, r1
 2077              	@ KPG     P19 G208
 2078 1484 40139BE5 	 ldr r1, [rg, #+832] @ 00000340
 2079 1488 4C208AE2 	 add r2, rp, #76 @ 0000004C
 2080 148c 0FE0A0E1 	 mov lr, pc
 2081 1490 01F0A0E1 	 mov pc, r1
 2082              	@ LG      G200
 2083 1494 20439BE5 	 ldr ra, [rg, #+800] @ 00000320
 2084              	@ ATBL    K105
 2085 1498 0450A0E1 	 mov rb, ra
 2086 149c 6940A0E3 	 mov ra, #105 @ 00000069
 2087              	@ GE
 2088 14a0 040055E1 	 cmp rb, ra
 2089 14a4 0040E0A3 	 mvnge ra, #0
 2090 14a8 0040A0B3 	 movlt ra, #0
 2091              	@ ATB
 2092 14ac 0450A0E1 	 mov rb, ra
 2093              	@ LM      K1
 2094 14b0 0040E0E3 	 mvn ra, #0 @ 00000000
 2095              	@ SP      P23
 2096 14b4 5C408AE5 	 str ra, [rp, #+92] @ 0000005C
 2097              	@ XCH
 2098 14b8 0410A0E1 	 mov r1, ra
 2099 14bc 0540A0E1 	 mov ra, rb
 2100 14c0 0150A0E1 	 mov rb, r1
 2101              	@ KPG     P19 G208
 2102 14c4 40139BE5 	 ldr r1, [rg, #+832] @ 00000340
 2103 14c8 4C208AE2 	 add r2, rp, #76 @ 0000004C
 2104 14cc 0FE0A0E1 	 mov lr, pc
 2105 14d0 01F0A0E1 	 mov pc, r1
 2106              	@ LG      G200
 2107 14d4 20439BE5 	 ldr ra, [rg, #+800] @ 00000320
 2108              	@ ATBL    K105
 2109 14d8 0450A0E1 	 mov rb, ra
 2110 14dc 6940A0E3 	 mov ra, #105 @ 00000069
 2111              	@ GR
 2112 14e0 040055E1 	 cmp rb, ra
 2113 14e4 0040E0C3 	 mvngt ra, #0
 2114 14e8 0040A0D3 	 movle ra, #0
 2115              	@ ATB
 2116 14ec 0450A0E1 	 mov rb, ra
 2117              	@ L       K0
 2118 14f0 0040A0E3 	 mov ra, #0 @ 00000000
 2119              	@ SP      P23
 2120 14f4 5C408AE5 	 str ra, [rp, #+92] @ 0000005C
 2121              	@ XCH
 2122 14f8 0410A0E1 	 mov r1, ra
 2123 14fc 0540A0E1 	 mov ra, rb
 2124 1500 0150A0E1 	 mov rb, r1
 2125              	@ KPG     P19 G208
 2126 1504 40139BE5 	 ldr r1, [rg, #+832] @ 00000340
 2127 1508 4C208AE2 	 add r2, rp, #76 @ 0000004C
ARM GAS  temps/cmpltest.s 			page 39


 2128 150c 0FE0A0E1 	 mov lr, pc
 2129 1510 01F0A0E1 	 mov pc, r1
 2130              	@ LG      G200
 2131 1514 20439BE5 	 ldr ra, [rg, #+800] @ 00000320
 2132              	@ ATBL    K105
 2133 1518 0450A0E1 	 mov rb, ra
 2134 151c 6940A0E3 	 mov ra, #105 @ 00000069
 2135              	@ LE
 2136 1520 040055E1 	 cmp rb, ra
 2137 1524 0040E0D3 	 mvnle ra, #0
 2138 1528 0040A0C3 	 movgt ra, #0
 2139              	@ ATB
 2140 152c 0450A0E1 	 mov rb, ra
 2141              	@ LM      K1
 2142 1530 0040E0E3 	 mvn ra, #0 @ 00000000
 2143              	@ SP      P23
 2144 1534 5C408AE5 	 str ra, [rp, #+92] @ 0000005C
 2145              	@ XCH
 2146 1538 0410A0E1 	 mov r1, ra
 2147 153c 0540A0E1 	 mov ra, rb
 2148 1540 0150A0E1 	 mov rb, r1
 2149              	@ KPG     P19 G208
 2150 1544 40139BE5 	 ldr r1, [rg, #+832] @ 00000340
 2151 1548 4C208AE2 	 add r2, rp, #76 @ 0000004C
 2152 154c 0FE0A0E1 	 mov lr, pc
 2153 1550 01F0A0E1 	 mov pc, r1
 2154              	@ L       K104
 2155 1554 6840A0E3 	 mov ra, #104 @ 00000068
 2156              	@ SG      G200
 2157 1558 20438BE5 	 str ra, [rg, #+800] @ 00000320
 2158              	@ ATBL    K105
 2159 155c 0450A0E1 	 mov rb, ra
 2160 1560 6940A0E3 	 mov ra, #105 @ 00000069
 2161              	@ EQ
 2162 1564 040055E1 	 cmp rb, ra
 2163 1568 0040E003 	 mvneq ra, #0
 2164 156c 0040A013 	 movne ra, #0
 2165              	@ ATB
 2166 1570 0450A0E1 	 mov rb, ra
 2167              	@ L       K0
 2168 1574 0040A0E3 	 mov ra, #0 @ 00000000
 2169              	@ SP      P23
 2170 1578 5C408AE5 	 str ra, [rp, #+92] @ 0000005C
 2171              	@ XCH
 2172 157c 0410A0E1 	 mov r1, ra
 2173 1580 0540A0E1 	 mov ra, rb
 2174 1584 0150A0E1 	 mov rb, r1
 2175              	@ KPG     P19 G208
 2176 1588 40139BE5 	 ldr r1, [rg, #+832] @ 00000340
 2177 158c 4C208AE2 	 add r2, rp, #76 @ 0000004C
 2178 1590 0FE0A0E1 	 mov lr, pc
 2179 1594 01F0A0E1 	 mov pc, r1
 2180              	@ L       K105
 2181 1598 6940A0E3 	 mov ra, #105 @ 00000069
 2182              	@ ATBLG   G200
 2183 159c 0450A0E1 	 mov rb, ra
 2184 15a0 20439BE5 	 ldr ra, [rg, #+800] @ 00000320
ARM GAS  temps/cmpltest.s 			page 40


 2185              	@ NE
 2186 15a4 054054E0 	 subs ra, ra, rb
 2187 15a8 0040E013 	 mvnne ra, #0
 2188              	@ ATB
 2189 15ac 0450A0E1 	 mov rb, ra
 2190              	@ LM      K1
 2191 15b0 0040E0E3 	 mvn ra, #0 @ 00000000
 2192              	@ SP      P23
 2193 15b4 5C408AE5 	 str ra, [rp, #+92] @ 0000005C
 2194              	@ XCH
 2195 15b8 0410A0E1 	 mov r1, ra
 2196 15bc 0540A0E1 	 mov ra, rb
 2197 15c0 0150A0E1 	 mov rb, r1
 2198              	@ KPG     P19 G208
 2199 15c4 40139BE5 	 ldr r1, [rg, #+832] @ 00000340
 2200 15c8 4C208AE2 	 add r2, rp, #76 @ 0000004C
 2201 15cc 0FE0A0E1 	 mov lr, pc
 2202 15d0 01F0A0E1 	 mov pc, r1
 2203              	@ LG      G200
 2204 15d4 20439BE5 	 ldr ra, [rg, #+800] @ 00000320
 2205              	@ ATBL    K105
 2206 15d8 0450A0E1 	 mov rb, ra
 2207 15dc 6940A0E3 	 mov ra, #105 @ 00000069
 2208              	@ LS
 2209 15e0 040055E1 	 cmp rb, ra
 2210 15e4 0040E0B3 	 mvnlt ra, #0
 2211 15e8 0040A0A3 	 movge ra, #0
 2212              	@ ATB
 2213 15ec 0450A0E1 	 mov rb, ra
 2214              	@ LM      K1
 2215 15f0 0040E0E3 	 mvn ra, #0 @ 00000000
 2216              	@ SP      P23
 2217 15f4 5C408AE5 	 str ra, [rp, #+92] @ 0000005C
 2218              	@ XCH
 2219 15f8 0410A0E1 	 mov r1, ra
 2220 15fc 0540A0E1 	 mov ra, rb
 2221 1600 0150A0E1 	 mov rb, r1
 2222              	@ KPG     P19 G208
 2223 1604 40139BE5 	 ldr r1, [rg, #+832] @ 00000340
 2224 1608 4C208AE2 	 add r2, rp, #76 @ 0000004C
 2225 160c 0FE0A0E1 	 mov lr, pc
 2226 1610 01F0A0E1 	 mov pc, r1
 2227              	@ LG      G200
 2228 1614 20439BE5 	 ldr ra, [rg, #+800] @ 00000320
 2229              	@ ATBL    K105
 2230 1618 0450A0E1 	 mov rb, ra
 2231 161c 6940A0E3 	 mov ra, #105 @ 00000069
 2232              	@ GE
 2233 1620 040055E1 	 cmp rb, ra
 2234 1624 0040E0A3 	 mvnge ra, #0
 2235 1628 0040A0B3 	 movlt ra, #0
 2236              	@ ATB
 2237 162c 0450A0E1 	 mov rb, ra
 2238              	@ L       K0
 2239 1630 0040A0E3 	 mov ra, #0 @ 00000000
 2240              	@ SP      P23
 2241 1634 5C408AE5 	 str ra, [rp, #+92] @ 0000005C
ARM GAS  temps/cmpltest.s 			page 41


 2242              	@ XCH
 2243 1638 0410A0E1 	 mov r1, ra
 2244 163c 0540A0E1 	 mov ra, rb
 2245 1640 0150A0E1 	 mov rb, r1
 2246              	@ KPG     P19 G208
 2247 1644 40139BE5 	 ldr r1, [rg, #+832] @ 00000340
 2248 1648 4C208AE2 	 add r2, rp, #76 @ 0000004C
 2249 164c 0FE0A0E1 	 mov lr, pc
 2250 1650 01F0A0E1 	 mov pc, r1
 2251              	@ LG      G200
 2252 1654 20439BE5 	 ldr ra, [rg, #+800] @ 00000320
 2253              	@ ATBL    K105
 2254 1658 0450A0E1 	 mov rb, ra
 2255 165c 6940A0E3 	 mov ra, #105 @ 00000069
 2256              	@ GR
 2257 1660 040055E1 	 cmp rb, ra
 2258 1664 0040E0C3 	 mvngt ra, #0
 2259 1668 0040A0D3 	 movle ra, #0
 2260              	@ ATB
 2261 166c 0450A0E1 	 mov rb, ra
 2262              	@ L       K0
 2263 1670 0040A0E3 	 mov ra, #0 @ 00000000
 2264              	@ SP      P23
 2265 1674 5C408AE5 	 str ra, [rp, #+92] @ 0000005C
 2266              	@ XCH
 2267 1678 0410A0E1 	 mov r1, ra
 2268 167c 0540A0E1 	 mov ra, rb
 2269 1680 0150A0E1 	 mov rb, r1
 2270              	@ KPG     P19 G208
 2271 1684 40139BE5 	 ldr r1, [rg, #+832] @ 00000340
 2272 1688 4C208AE2 	 add r2, rp, #76 @ 0000004C
 2273 168c 0FE0A0E1 	 mov lr, pc
 2274 1690 01F0A0E1 	 mov pc, r1
 2275              	@ LG      G200
 2276 1694 20439BE5 	 ldr ra, [rg, #+800] @ 00000320
 2277              	@ ATBL    K105
 2278 1698 0450A0E1 	 mov rb, ra
 2279 169c 6940A0E3 	 mov ra, #105 @ 00000069
 2280              	@ LE
 2281 16a0 040055E1 	 cmp rb, ra
 2282 16a4 0040E0D3 	 mvnle ra, #0
 2283 16a8 0040A0C3 	 movgt ra, #0
 2284              	@ ATB
 2285 16ac 0450A0E1 	 mov rb, ra
 2286              	@ LM      K1
 2287 16b0 0040E0E3 	 mvn ra, #0 @ 00000000
 2288              	@ SP      P23
 2289 16b4 5C408AE5 	 str ra, [rp, #+92] @ 0000005C
 2290              	@ XCH
 2291 16b8 0410A0E1 	 mov r1, ra
 2292 16bc 0540A0E1 	 mov ra, rb
 2293 16c0 0150A0E1 	 mov rb, r1
 2294              	@ KPG     P19 G208
 2295 16c4 40139BE5 	 ldr r1, [rg, #+832] @ 00000340
 2296 16c8 4C208AE2 	 add r2, rp, #76 @ 0000004C
 2297 16cc 0FE0A0E1 	 mov lr, pc
 2298 16d0 01F0A0E1 	 mov pc, r1
ARM GAS  temps/cmpltest.s 			page 42


 2299              	@ L       K0
 2300 16d4 0040A0E3 	 mov ra, #0 @ 00000000
 2301              	@ SG      G200
 2302 16d8 20438BE5 	 str ra, [rg, #+800] @ 00000320
 2303              	@ EQ
 2304 16dc 000054E3 	 cmp ra, #0
 2305 16e0 0040E003 	 mvneq ra, #0
 2306 16e4 0040A013 	 movne ra, #0
 2307              	@ ATB
 2308 16e8 0450A0E1 	 mov rb, ra
 2309              	@ LM      K1
 2310 16ec 0040E0E3 	 mvn ra, #0 @ 00000000
 2311              	@ SP      P23
 2312 16f0 5C408AE5 	 str ra, [rp, #+92] @ 0000005C
 2313              	@ XCH
 2314 16f4 0410A0E1 	 mov r1, ra
 2315 16f8 0540A0E1 	 mov ra, rb
 2316 16fc 0150A0E1 	 mov rb, r1
 2317              	@ KPG     P19 G208
 2318 1700 40139BE5 	 ldr r1, [rg, #+832] @ 00000340
 2319 1704 4C208AE2 	 add r2, rp, #76 @ 0000004C
 2320 1708 0FE0A0E1 	 mov lr, pc
 2321 170c 01F0A0E1 	 mov pc, r1
 2322              	@ LG      G200
 2323 1710 20439BE5 	 ldr ra, [rg, #+800] @ 00000320
 2324              	@ NE
 2325 1714 000054E3 	 cmp ra, #0
 2326 1718 0040E013 	 mvnne ra, #0
 2327              	@ ATB
 2328 171c 0450A0E1 	 mov rb, ra
 2329              	@ L       K0
 2330 1720 0040A0E3 	 mov ra, #0 @ 00000000
 2331              	@ SP      P23
 2332 1724 5C408AE5 	 str ra, [rp, #+92] @ 0000005C
 2333              	@ XCH
 2334 1728 0410A0E1 	 mov r1, ra
 2335 172c 0540A0E1 	 mov ra, rb
 2336 1730 0150A0E1 	 mov rb, r1
 2337              	@ KPG     P19 G208
 2338 1734 40139BE5 	 ldr r1, [rg, #+832] @ 00000340
 2339 1738 4C208AE2 	 add r2, rp, #76 @ 0000004C
 2340 173c 0FE0A0E1 	 mov lr, pc
 2341 1740 01F0A0E1 	 mov pc, r1
 2342              	@ LG      G200
 2343 1744 20439BE5 	 ldr ra, [rg, #+800] @ 00000320
 2344              	@ LS
 2345 1748 000054E3 	 cmp ra, #0
 2346 174c 0040E0B3 	 mvnlt ra, #0
 2347 1750 0040A0A3 	 movge ra, #0
 2348              	@ ATB
 2349 1754 0450A0E1 	 mov rb, ra
 2350              	@ L       K0
 2351 1758 0040A0E3 	 mov ra, #0 @ 00000000
 2352              	@ SP      P23
 2353 175c 5C408AE5 	 str ra, [rp, #+92] @ 0000005C
 2354              	@ XCH
 2355 1760 0410A0E1 	 mov r1, ra
ARM GAS  temps/cmpltest.s 			page 43


 2356 1764 0540A0E1 	 mov ra, rb
 2357 1768 0150A0E1 	 mov rb, r1
 2358              	@ KPG     P19 G208
 2359 176c 40139BE5 	 ldr r1, [rg, #+832] @ 00000340
 2360 1770 4C208AE2 	 add r2, rp, #76 @ 0000004C
 2361 1774 0FE0A0E1 	 mov lr, pc
 2362 1778 01F0A0E1 	 mov pc, r1
 2363              	@ LG      G200
 2364 177c 20439BE5 	 ldr ra, [rg, #+800] @ 00000320
 2365              	@ GE
 2366 1780 000054E3 	 cmp ra, #0
 2367 1784 0040E0A3 	 mvnge ra, #0
 2368 1788 0040A0B3 	 movlt ra, #0
 2369              	@ ATB
 2370 178c 0450A0E1 	 mov rb, ra
 2371              	@ LM      K1
 2372 1790 0040E0E3 	 mvn ra, #0 @ 00000000
 2373              	@ SP      P23
 2374 1794 5C408AE5 	 str ra, [rp, #+92] @ 0000005C
 2375              	@ XCH
 2376 1798 0410A0E1 	 mov r1, ra
 2377 179c 0540A0E1 	 mov ra, rb
 2378 17a0 0150A0E1 	 mov rb, r1
 2379              	@ KPG     P19 G208
 2380 17a4 40139BE5 	 ldr r1, [rg, #+832] @ 00000340
 2381 17a8 4C208AE2 	 add r2, rp, #76 @ 0000004C
 2382 17ac 0FE0A0E1 	 mov lr, pc
 2383 17b0 01F0A0E1 	 mov pc, r1
 2384              	@ LG      G200
 2385 17b4 20439BE5 	 ldr ra, [rg, #+800] @ 00000320
 2386              	@ GR
 2387 17b8 000054E3 	 cmp ra, #0
 2388 17bc 0040E0C3 	 mvngt ra, #0
 2389 17c0 0040A0D3 	 movle ra, #0
 2390              	@ ATB
 2391 17c4 0450A0E1 	 mov rb, ra
 2392              	@ L       K0
 2393 17c8 0040A0E3 	 mov ra, #0 @ 00000000
 2394              	@ SP      P23
 2395 17cc 5C408AE5 	 str ra, [rp, #+92] @ 0000005C
 2396              	@ XCH
 2397 17d0 0410A0E1 	 mov r1, ra
 2398 17d4 0540A0E1 	 mov ra, rb
 2399 17d8 0150A0E1 	 mov rb, r1
 2400              	@ KPG     P19 G208
 2401 17dc 40139BE5 	 ldr r1, [rg, #+832] @ 00000340
 2402 17e0 4C208AE2 	 add r2, rp, #76 @ 0000004C
 2403 17e4 0FE0A0E1 	 mov lr, pc
 2404 17e8 01F0A0E1 	 mov pc, r1
 2405              	@ LG      G200
 2406 17ec 20439BE5 	 ldr ra, [rg, #+800] @ 00000320
 2407              	@ LE
 2408 17f0 000054E3 	 cmp ra, #0
 2409 17f4 0040E0D3 	 mvnle ra, #0
 2410 17f8 0040A0C3 	 movgt ra, #0
 2411              	@ ATB
 2412 17fc 0450A0E1 	 mov rb, ra
ARM GAS  temps/cmpltest.s 			page 44


 2413              	@ LM      K1
 2414 1800 0040E0E3 	 mvn ra, #0 @ 00000000
 2415              	@ SP      P23
 2416 1804 5C408AE5 	 str ra, [rp, #+92] @ 0000005C
 2417              	@ XCH
 2418 1808 0410A0E1 	 mov r1, ra
 2419 180c 0540A0E1 	 mov ra, rb
 2420 1810 0150A0E1 	 mov rb, r1
 2421              	@ KPG     P19 G208
 2422 1814 40139BE5 	 ldr r1, [rg, #+832] @ 00000340
 2423 1818 4C208AE2 	 add r2, rp, #76 @ 0000004C
 2424 181c 0FE0A0E1 	 mov lr, pc
 2425 1820 01F0A0E1 	 mov pc, r1
 2426              	@ L       K1
 2427 1824 0140A0E3 	 mov ra, #1 @ 00000001
 2428              	@ SG      G200
 2429 1828 20438BE5 	 str ra, [rg, #+800] @ 00000320
 2430              	@ EQ
 2431 182c 000054E3 	 cmp ra, #0
 2432 1830 0040E003 	 mvneq ra, #0
 2433 1834 0040A013 	 movne ra, #0
 2434              	@ ATB
 2435 1838 0450A0E1 	 mov rb, ra
 2436              	@ L       K0
 2437 183c 0040A0E3 	 mov ra, #0 @ 00000000
 2438              	@ SP      P23
 2439 1840 5C408AE5 	 str ra, [rp, #+92] @ 0000005C
 2440              	@ XCH
 2441 1844 0410A0E1 	 mov r1, ra
 2442 1848 0540A0E1 	 mov ra, rb
 2443 184c 0150A0E1 	 mov rb, r1
 2444              	@ KPG     P19 G208
 2445 1850 40139BE5 	 ldr r1, [rg, #+832] @ 00000340
 2446 1854 4C208AE2 	 add r2, rp, #76 @ 0000004C
 2447 1858 0FE0A0E1 	 mov lr, pc
 2448 185c 01F0A0E1 	 mov pc, r1
 2449              	@ LG      G200
 2450 1860 20439BE5 	 ldr ra, [rg, #+800] @ 00000320
 2451              	@ NE
 2452 1864 000054E3 	 cmp ra, #0
 2453 1868 0040E013 	 mvnne ra, #0
 2454              	@ ATB
 2455 186c 0450A0E1 	 mov rb, ra
 2456              	@ LM      K1
 2457 1870 0040E0E3 	 mvn ra, #0 @ 00000000
 2458              	@ SP      P23
 2459 1874 5C408AE5 	 str ra, [rp, #+92] @ 0000005C
 2460              	@ XCH
 2461 1878 0410A0E1 	 mov r1, ra
 2462 187c 0540A0E1 	 mov ra, rb
 2463 1880 0150A0E1 	 mov rb, r1
 2464              	@ KPG     P19 G208
 2465 1884 40139BE5 	 ldr r1, [rg, #+832] @ 00000340
 2466 1888 4C208AE2 	 add r2, rp, #76 @ 0000004C
 2467 188c 0FE0A0E1 	 mov lr, pc
 2468 1890 01F0A0E1 	 mov pc, r1
 2469              	@ LG      G200
ARM GAS  temps/cmpltest.s 			page 45


 2470 1894 20439BE5 	 ldr ra, [rg, #+800] @ 00000320
 2471              	@ LS
 2472 1898 000054E3 	 cmp ra, #0
 2473 189c 0040E0B3 	 mvnlt ra, #0
 2474 18a0 0040A0A3 	 movge ra, #0
 2475              	@ ATB
 2476 18a4 0450A0E1 	 mov rb, ra
 2477              	@ L       K0
 2478 18a8 0040A0E3 	 mov ra, #0 @ 00000000
 2479              	@ SP      P23
 2480 18ac 5C408AE5 	 str ra, [rp, #+92] @ 0000005C
 2481              	@ XCH
 2482 18b0 0410A0E1 	 mov r1, ra
 2483 18b4 0540A0E1 	 mov ra, rb
 2484 18b8 0150A0E1 	 mov rb, r1
 2485              	@ KPG     P19 G208
 2486 18bc 40139BE5 	 ldr r1, [rg, #+832] @ 00000340
 2487 18c0 4C208AE2 	 add r2, rp, #76 @ 0000004C
 2488 18c4 0FE0A0E1 	 mov lr, pc
 2489 18c8 01F0A0E1 	 mov pc, r1
 2490              	@ LG      G200
 2491 18cc 20439BE5 	 ldr ra, [rg, #+800] @ 00000320
 2492              	@ GE
 2493 18d0 000054E3 	 cmp ra, #0
 2494 18d4 0040E0A3 	 mvnge ra, #0
 2495 18d8 0040A0B3 	 movlt ra, #0
 2496              	@ ATB
 2497 18dc 0450A0E1 	 mov rb, ra
 2498              	@ LM      K1
 2499 18e0 0040E0E3 	 mvn ra, #0 @ 00000000
 2500              	@ SP      P23
 2501 18e4 5C408AE5 	 str ra, [rp, #+92] @ 0000005C
 2502              	@ XCH
 2503 18e8 0410A0E1 	 mov r1, ra
 2504 18ec 0540A0E1 	 mov ra, rb
 2505 18f0 0150A0E1 	 mov rb, r1
 2506              	@ KPG     P19 G208
 2507 18f4 40139BE5 	 ldr r1, [rg, #+832] @ 00000340
 2508 18f8 4C208AE2 	 add r2, rp, #76 @ 0000004C
 2509 18fc 0FE0A0E1 	 mov lr, pc
 2510 1900 01F0A0E1 	 mov pc, r1
 2511              	@ LG      G200
 2512 1904 20439BE5 	 ldr ra, [rg, #+800] @ 00000320
 2513              	@ GR
 2514 1908 000054E3 	 cmp ra, #0
 2515 190c 0040E0C3 	 mvngt ra, #0
 2516 1910 0040A0D3 	 movle ra, #0
 2517              	@ ATB
 2518 1914 0450A0E1 	 mov rb, ra
 2519              	@ LM      K1
 2520 1918 0040E0E3 	 mvn ra, #0 @ 00000000
 2521              	@ SP      P23
 2522 191c 5C408AE5 	 str ra, [rp, #+92] @ 0000005C
 2523              	@ XCH
 2524 1920 0410A0E1 	 mov r1, ra
 2525 1924 0540A0E1 	 mov ra, rb
 2526 1928 0150A0E1 	 mov rb, r1
ARM GAS  temps/cmpltest.s 			page 46


 2527              	@ KPG     P19 G208
 2528 192c 40139BE5 	 ldr r1, [rg, #+832] @ 00000340
 2529 1930 4C208AE2 	 add r2, rp, #76 @ 0000004C
 2530 1934 0FE0A0E1 	 mov lr, pc
 2531 1938 01F0A0E1 	 mov pc, r1
 2532              	@ LG      G200
 2533 193c 20439BE5 	 ldr ra, [rg, #+800] @ 00000320
 2534              	@ LE
 2535 1940 000054E3 	 cmp ra, #0
 2536 1944 0040E0D3 	 mvnle ra, #0
 2537 1948 0040A0C3 	 movgt ra, #0
 2538              	@ ATB
 2539 194c 0450A0E1 	 mov rb, ra
 2540              	@ L       K0
 2541 1950 0040A0E3 	 mov ra, #0 @ 00000000
 2542              	@ SP      P23
 2543 1954 5C408AE5 	 str ra, [rp, #+92] @ 0000005C
 2544              	@ XCH
 2545 1958 0410A0E1 	 mov r1, ra
 2546 195c 0540A0E1 	 mov ra, rb
 2547 1960 0150A0E1 	 mov rb, r1
 2548              	@ KPG     P19 G208
 2549 1964 40139BE5 	 ldr r1, [rg, #+832] @ 00000340
 2550 1968 4C208AE2 	 add r2, rp, #76 @ 0000004C
 2551 196c 0FE0A0E1 	 mov lr, pc
 2552 1970 01F0A0E1 	 mov pc, r1
 2553              	@ L       K60
 2554 1974 3C40A0E3 	 mov ra, #60 @ 0000003C
 2555              	@ SG      G203
 2556 1978 2C438BE5 	 str ra, [rg, #+812] @ 0000032C
 2557              	@ LP      P18
 2558 197c 48409AE5 	 ldr ra, [rp, #+72] @ 00000048
 2559              	@ ATBL    K3
 2560 1980 0450A0E1 	 mov rb, ra
 2561 1984 0340A0E3 	 mov ra, #3 @ 00000003
 2562              	@ LSH
 2563 1988 1F0054E3 	 cmp ra, #31
 2564 198c 0050A083 	 movhi rb, #0
 2565 1990 1544A0E1 	 mov ra, rb, lsl ra
 2566              	@ ATB
 2567 1994 0450A0E1 	 mov rb, ra
 2568              	@ L       K8168
 2569 1998 FA4FA0E3 	 mov ra, #1000 @ 000003E8
 2570 199c 074B84E3 	 orr ra, ra, #7168 @ 00001C00
 2571              	@ SP      P23
 2572 19a0 5C408AE5 	 str ra, [rp, #+92] @ 0000005C
 2573              	@ XCH
 2574 19a4 0410A0E1 	 mov r1, ra
 2575 19a8 0540A0E1 	 mov ra, rb
 2576 19ac 0150A0E1 	 mov rb, r1
 2577              	@ KPG     P19 G208
 2578 19b0 40139BE5 	 ldr r1, [rg, #+832] @ 00000340
 2579 19b4 4C208AE2 	 add r2, rp, #76 @ 0000004C
 2580 19b8 0FE0A0E1 	 mov lr, pc
 2581 19bc 01F0A0E1 	 mov pc, r1
 2582              	@ LP      P18
 2583 19c0 48409AE5 	 ldr ra, [rp, #+72] @ 00000048
ARM GAS  temps/cmpltest.s 			page 47


 2584              	@ ATBL    K3
 2585 19c4 0450A0E1 	 mov rb, ra
 2586 19c8 0340A0E3 	 mov ra, #3 @ 00000003
 2587              	@ RSH
 2588 19cc 1F0054E3 	 cmp ra, #31
 2589 19d0 0050A083 	 movhi rb, #0
 2590 19d4 3544A0E1 	 mov ra, rb, lsr ra
 2591              	@ ATB
 2592 19d8 0450A0E1 	 mov rb, ra
 2593              	@ L       K127
 2594 19dc 7F40A0E3 	 mov ra, #127 @ 0000007F
 2595              	@ SP      P23
 2596 19e0 5C408AE5 	 str ra, [rp, #+92] @ 0000005C
 2597              	@ XCH
 2598 19e4 0410A0E1 	 mov r1, ra
 2599 19e8 0540A0E1 	 mov ra, rb
 2600 19ec 0150A0E1 	 mov rb, r1
 2601              	@ KPG     P19 G208
 2602 19f0 40139BE5 	 ldr r1, [rg, #+832] @ 00000340
 2603 19f4 4C208AE2 	 add r2, rp, #76 @ 0000004C
 2604 19f8 0FE0A0E1 	 mov lr, pc
 2605 19fc 01F0A0E1 	 mov pc, r1
 2606              	@ L       K1
 2607 1a00 0140A0E3 	 mov ra, #1 @ 00000001
 2608              	@ AP      P5
 2609 1a04 14109AE5 	 ldr r1, [rp, #+20] @ 00000014
 2610 1a08 014084E0 	 add ra, ra, r1
 2611              	@ ATBLP   P18
 2612 1a0c 0450A0E1 	 mov rb, ra
 2613 1a10 48409AE5 	 ldr ra, [rp, #+72] @ 00000048
 2614              	@ XCH
 2615 1a14 0410A0E1 	 mov r1, ra
 2616 1a18 0540A0E1 	 mov ra, rb
 2617 1a1c 0150A0E1 	 mov rb, r1
 2618              	@ LSH
 2619 1a20 1F0054E3 	 cmp ra, #31
 2620 1a24 0050A083 	 movhi rb, #0
 2621 1a28 1544A0E1 	 mov ra, rb, lsl ra
 2622              	@ ATB
 2623 1a2c 0450A0E1 	 mov rb, ra
 2624              	@ L       K8168
 2625 1a30 FA4FA0E3 	 mov ra, #1000 @ 000003E8
 2626 1a34 074B84E3 	 orr ra, ra, #7168 @ 00001C00
 2627              	@ SP      P23
 2628 1a38 5C408AE5 	 str ra, [rp, #+92] @ 0000005C
 2629              	@ XCH
 2630 1a3c 0410A0E1 	 mov r1, ra
 2631 1a40 0540A0E1 	 mov ra, rb
 2632 1a44 0150A0E1 	 mov rb, r1
 2633              	@ KPG     P19 G208
 2634 1a48 40139BE5 	 ldr r1, [rg, #+832] @ 00000340
 2635 1a4c 4C208AE2 	 add r2, rp, #76 @ 0000004C
 2636 1a50 0FE0A0E1 	 mov lr, pc
 2637 1a54 01F0A0E1 	 mov pc, r1
 2638              	@ L       K1
 2639 1a58 0140A0E3 	 mov ra, #1 @ 00000001
 2640              	@ AP      P5
ARM GAS  temps/cmpltest.s 			page 48


 2641 1a5c 14109AE5 	 ldr r1, [rp, #+20] @ 00000014
 2642 1a60 014084E0 	 add ra, ra, r1
 2643              	@ ATBLP   P18
 2644 1a64 0450A0E1 	 mov rb, ra
 2645 1a68 48409AE5 	 ldr ra, [rp, #+72] @ 00000048
 2646              	@ XCH
 2647 1a6c 0410A0E1 	 mov r1, ra
 2648 1a70 0540A0E1 	 mov ra, rb
 2649 1a74 0150A0E1 	 mov rb, r1
 2650              	@ RSH
 2651 1a78 1F0054E3 	 cmp ra, #31
 2652 1a7c 0050A083 	 movhi rb, #0
 2653 1a80 3544A0E1 	 mov ra, rb, lsr ra
 2654              	@ ATB
 2655 1a84 0450A0E1 	 mov rb, ra
 2656              	@ L       K127
 2657 1a88 7F40A0E3 	 mov ra, #127 @ 0000007F
 2658              	@ SP      P23
 2659 1a8c 5C408AE5 	 str ra, [rp, #+92] @ 0000005C
 2660              	@ XCH
 2661 1a90 0410A0E1 	 mov r1, ra
 2662 1a94 0540A0E1 	 mov ra, rb
 2663 1a98 0150A0E1 	 mov rb, r1
 2664              	@ KPG     P19 G208
 2665 1a9c 40139BE5 	 ldr r1, [rg, #+832] @ 00000340
 2666 1aa0 4C208AE2 	 add r2, rp, #76 @ 0000004C
 2667 1aa4 0FE0A0E1 	 mov lr, pc
 2668 1aa8 01F0A0E1 	 mov pc, r1
 2669              	@ L       K12
 2670 1aac 0C40A0E3 	 mov ra, #12 @ 0000000C
 2671              	@ SP      P19
 2672 1ab0 4C408AE5 	 str ra, [rp, #+76] @ 0000004C
 2673              	@ L       K10
 2674 1ab4 0A40A0E3 	 mov ra, #10 @ 0000000A
 2675              	@ SP      P20
 2676 1ab8 50408AE5 	 str ra, [rp, #+80] @ 00000050
 2677              	@ LM      K1
 2678 1abc 0040E0E3 	 mvn ra, #0 @ 00000000
 2679              	@ SP      P21
 2680 1ac0 54408AE5 	 str ra, [rp, #+84] @ 00000054
 2681              	@ L       K0
 2682 1ac4 0040A0E3 	 mov ra, #0 @ 00000000
 2683              	@ SP      P22
 2684 1ac8 58408AE5 	 str ra, [rp, #+88] @ 00000058
 2685              	@ L       K70
 2686 1acc 4640A0E3 	 mov ra, #70 @ 00000046
 2687              	@ SG      G203
 2688 1ad0 2C438BE5 	 str ra, [rg, #+812] @ 0000032C
 2689              	@ L       K10
 2690 1ad4 0A40A0E3 	 mov ra, #10 @ 0000000A
 2691              	@ ATBLP   P19
 2692 1ad8 0450A0E1 	 mov rb, ra
 2693 1adc 4C409AE5 	 ldr ra, [rp, #+76] @ 0000004C
 2694              	@ AND
 2695 1ae0 044005E0 	 and ra, rb, ra
 2696              	@ ATB
 2697 1ae4 0450A0E1 	 mov rb, ra
ARM GAS  temps/cmpltest.s 			page 49


 2698              	@ L       K8
 2699 1ae8 0840A0E3 	 mov ra, #8 @ 00000008
 2700              	@ SP      P27
 2701 1aec 6C408AE5 	 str ra, [rp, #+108] @ 0000006C
 2702              	@ XCH
 2703 1af0 0410A0E1 	 mov r1, ra
 2704 1af4 0540A0E1 	 mov ra, rb
 2705 1af8 0150A0E1 	 mov rb, r1
 2706              	@ KPG     P23 G208
 2707 1afc 40139BE5 	 ldr r1, [rg, #+832] @ 00000340
 2708 1b00 5C208AE2 	 add r2, rp, #92 @ 0000005C
 2709 1b04 0FE0A0E1 	 mov lr, pc
 2710 1b08 01F0A0E1 	 mov pc, r1
 2711              	@ L       K10
 2712 1b0c 0A40A0E3 	 mov ra, #10 @ 0000000A
 2713              	@ ATBLP   P19
 2714 1b10 0450A0E1 	 mov rb, ra
 2715 1b14 4C409AE5 	 ldr ra, [rp, #+76] @ 0000004C
 2716              	@ OR
 2717 1b18 044085E1 	 orr ra, rb, ra
 2718              	@ ATB
 2719 1b1c 0450A0E1 	 mov rb, ra
 2720              	@ L       K14
 2721 1b20 0E40A0E3 	 mov ra, #14 @ 0000000E
 2722              	@ SP      P27
 2723 1b24 6C408AE5 	 str ra, [rp, #+108] @ 0000006C
 2724              	@ XCH
 2725 1b28 0410A0E1 	 mov r1, ra
 2726 1b2c 0540A0E1 	 mov ra, rb
 2727 1b30 0150A0E1 	 mov rb, r1
 2728              	@ KPG     P23 G208
 2729 1b34 40139BE5 	 ldr r1, [rg, #+832] @ 00000340
 2730 1b38 5C208AE2 	 add r2, rp, #92 @ 0000005C
 2731 1b3c 0FE0A0E1 	 mov lr, pc
 2732 1b40 01F0A0E1 	 mov pc, r1
 2733              	@ L       K10
 2734 1b44 0A40A0E3 	 mov ra, #10 @ 0000000A
 2735              	@ ATBLP   P19
 2736 1b48 0450A0E1 	 mov rb, ra
 2737 1b4c 4C409AE5 	 ldr ra, [rp, #+76] @ 0000004C
 2738              	@ EQV
 2739 1b50 044025E0 	 eor ra, rb, ra
 2740 1b54 0440E0E1 	 mvn ra, ra
 2741              	@ ATBL    K31
 2742 1b58 0450A0E1 	 mov rb, ra
 2743 1b5c 1F40A0E3 	 mov ra, #31 @ 0000001F
 2744              	@ AND
 2745 1b60 044005E0 	 and ra, rb, ra
 2746              	@ ATB
 2747 1b64 0450A0E1 	 mov rb, ra
 2748              	@ L       K25
 2749 1b68 1940A0E3 	 mov ra, #25 @ 00000019
 2750              	@ SP      P27
 2751 1b6c 6C408AE5 	 str ra, [rp, #+108] @ 0000006C
 2752              	@ XCH
 2753 1b70 0410A0E1 	 mov r1, ra
 2754 1b74 0540A0E1 	 mov ra, rb
ARM GAS  temps/cmpltest.s 			page 50


 2755 1b78 0150A0E1 	 mov rb, r1
 2756              	@ KPG     P23 G208
 2757 1b7c 40139BE5 	 ldr r1, [rg, #+832] @ 00000340
 2758 1b80 5C208AE2 	 add r2, rp, #92 @ 0000005C
 2759 1b84 0FE0A0E1 	 mov lr, pc
 2760 1b88 01F0A0E1 	 mov pc, r1
 2761              	@ L       K10
 2762 1b8c 0A40A0E3 	 mov ra, #10 @ 0000000A
 2763              	@ ATBLP   P19
 2764 1b90 0450A0E1 	 mov rb, ra
 2765 1b94 4C409AE5 	 ldr ra, [rp, #+76] @ 0000004C
 2766              	@ XOR
 2767 1b98 044025E0 	 eor ra, rb, ra
 2768              	@ ATB
 2769 1b9c 0450A0E1 	 mov rb, ra
 2770              	@ L       K6
 2771 1ba0 0640A0E3 	 mov ra, #6 @ 00000006
 2772              	@ SP      P27
 2773 1ba4 6C408AE5 	 str ra, [rp, #+108] @ 0000006C
 2774              	@ XCH
 2775 1ba8 0410A0E1 	 mov r1, ra
 2776 1bac 0540A0E1 	 mov ra, rb
 2777 1bb0 0150A0E1 	 mov rb, r1
 2778              	@ KPG     P23 G208
 2779 1bb4 40139BE5 	 ldr r1, [rg, #+832] @ 00000340
 2780 1bb8 5C208AE2 	 add r2, rp, #92 @ 0000005C
 2781 1bbc 0FE0A0E1 	 mov lr, pc
 2782 1bc0 01F0A0E1 	 mov pc, r1
 2783              	@ LP      P21
 2784 1bc4 54409AE5 	 ldr ra, [rp, #+84] @ 00000054
 2785              	@ NOT
 2786 1bc8 0440E0E1 	 mvn ra, ra
 2787              	@ ATB
 2788 1bcc 0450A0E1 	 mov rb, ra
 2789              	@ LP      P22
 2790 1bd0 58409AE5 	 ldr ra, [rp, #+88] @ 00000058
 2791              	@ SP      P27
 2792 1bd4 6C408AE5 	 str ra, [rp, #+108] @ 0000006C
 2793              	@ XCH
 2794 1bd8 0410A0E1 	 mov r1, ra
 2795 1bdc 0540A0E1 	 mov ra, rb
 2796 1be0 0150A0E1 	 mov rb, r1
 2797              	@ KPG     P23 G208
 2798 1be4 40139BE5 	 ldr r1, [rg, #+832] @ 00000340
 2799 1be8 5C208AE2 	 add r2, rp, #92 @ 0000005C
 2800 1bec 0FE0A0E1 	 mov lr, pc
 2801 1bf0 01F0A0E1 	 mov pc, r1
 2802              	@ LP      P22
 2803 1bf4 58409AE5 	 ldr ra, [rp, #+88] @ 00000058
 2804              	@ NOT
 2805 1bf8 0440E0E1 	 mvn ra, ra
 2806              	@ ATB
 2807 1bfc 0450A0E1 	 mov rb, ra
 2808              	@ LP      P21
 2809 1c00 54409AE5 	 ldr ra, [rp, #+84] @ 00000054
 2810              	@ SP      P27
 2811 1c04 6C408AE5 	 str ra, [rp, #+108] @ 0000006C
ARM GAS  temps/cmpltest.s 			page 51


 2812              	@ XCH
 2813 1c08 0410A0E1 	 mov r1, ra
 2814 1c0c 0540A0E1 	 mov ra, rb
 2815 1c10 0150A0E1 	 mov rb, r1
 2816              	@ KPG     P23 G208
 2817 1c14 40139BE5 	 ldr r1, [rg, #+832] @ 00000340
 2818 1c18 5C208AE2 	 add r2, rp, #92 @ 0000005C
 2819 1c1c 0FE0A0E1 	 mov lr, pc
 2820 1c20 01F0A0E1 	 mov pc, r1
 2821              	@ LP      P20
 2822 1c24 50409AE5 	 ldr ra, [rp, #+80] @ 00000050
 2823              	@ NEG
 2824 1c28 004064E2 	 rsb ra, ra, #0
 2825              	@ ATBLP   P19
 2826 1c2c 0450A0E1 	 mov rb, ra
 2827 1c30 4C409AE5 	 ldr ra, [rp, #+76] @ 0000004C
 2828              	@ EQV
 2829 1c34 044025E0 	 eor ra, rb, ra
 2830 1c38 0440E0E1 	 mvn ra, ra
 2831              	@ NOT
 2832 1c3c 0440E0E1 	 mvn ra, ra
 2833              	@ SP      P26
 2834 1c40 68408AE5 	 str ra, [rp, #+104] @ 00000068
 2835              	@ LP      P20
 2836 1c44 50409AE5 	 ldr ra, [rp, #+80] @ 00000050
 2837              	@ NEG
 2838 1c48 004064E2 	 rsb ra, ra, #0
 2839              	@ ATBLP   P19
 2840 1c4c 0450A0E1 	 mov rb, ra
 2841 1c50 4C409AE5 	 ldr ra, [rp, #+76] @ 0000004C
 2842              	@ XOR
 2843 1c54 044025E0 	 eor ra, rb, ra
 2844              	@ SP      P27
 2845 1c58 6C408AE5 	 str ra, [rp, #+108] @ 0000006C
 2846              	@ LP      P26
 2847 1c5c 68409AE5 	 ldr ra, [rp, #+104] @ 00000068
 2848              	@ KPG     P23 G208
 2849 1c60 40139BE5 	 ldr r1, [rg, #+832] @ 00000340
 2850 1c64 5C208AE2 	 add r2, rp, #92 @ 0000005C
 2851 1c68 0FE0A0E1 	 mov lr, pc
 2852 1c6c 01F0A0E1 	 mov pc, r1
 2853              	@ L       K80
 2854 1c70 5040A0E3 	 mov ra, #80 @ 00000050
 2855              	@ SG      G203
 2856 1c74 2C438BE5 	 str ra, [rg, #+812] @ 0000032C
 2857              	@ L       K105
 2858 1c78 6940A0E3 	 mov ra, #105 @ 00000069
 2859              	@ SG      G200
 2860 1c7c 20438BE5 	 str ra, [rg, #+800] @ 00000320
 2861              	@ NEG
 2862 1c80 004064E2 	 rsb ra, ra, #0
 2863              	@ ATB
 2864 1c84 0450A0E1 	 mov rb, ra
 2865              	@ LM      K105
 2866 1c88 6840E0E3 	 mvn ra, #104 @ 00000068
 2867              	@ SP      P23
 2868 1c8c 5C408AE5 	 str ra, [rp, #+92] @ 0000005C
ARM GAS  temps/cmpltest.s 			page 52


 2869              	@ XCH
 2870 1c90 0410A0E1 	 mov r1, ra
 2871 1c94 0540A0E1 	 mov ra, rb
 2872 1c98 0150A0E1 	 mov rb, r1
 2873              	@ KPG     P19 G208
 2874 1c9c 40139BE5 	 ldr r1, [rg, #+832] @ 00000340
 2875 1ca0 4C208AE2 	 add r2, rp, #76 @ 0000004C
 2876 1ca4 0FE0A0E1 	 mov lr, pc
 2877 1ca8 01F0A0E1 	 mov pc, r1
 2878              	@ L       K1000
 2879 1cac FA4FA0E3 	 mov ra, #1000 @ 000003E8
 2880              	@ SP      P23
 2881 1cb0 5C408AE5 	 str ra, [rp, #+92] @ 0000005C
 2882              	@ LKG     K0 G205
 2883 1cb4 34439BE5 	 ldr ra, [rg, #+820] @ 00000334
 2884 1cb8 0010A0E3 	 mov r1, #0 @ 00000000
 2885 1cbc 044191E7 	 ldr ra, [r1, ra, lsl #2]
 2886              	@ KPG     P19 G208
 2887 1cc0 40139BE5 	 ldr r1, [rg, #+832] @ 00000340
 2888 1cc4 4C208AE2 	 add r2, rp, #76 @ 0000004C
 2889 1cc8 0FE0A0E1 	 mov lr, pc
 2890 1ccc 01F0A0E1 	 mov pc, r1
 2891              	@ L       K1000
 2892 1cd0 FA4FA0E3 	 mov ra, #1000 @ 000003E8
 2893              	@ SP      P23
 2894 1cd4 5C408AE5 	 str ra, [rp, #+92] @ 0000005C
 2895              	@ LKG     K0 G205
 2896 1cd8 34439BE5 	 ldr ra, [rg, #+820] @ 00000334
 2897 1cdc 0010A0E3 	 mov r1, #0 @ 00000000
 2898 1ce0 044191E7 	 ldr ra, [r1, ra, lsl #2]
 2899              	@ KPG     P19 G208
 2900 1ce4 40139BE5 	 ldr r1, [rg, #+832] @ 00000340
 2901 1ce8 4C208AE2 	 add r2, rp, #76 @ 0000004C
 2902 1cec 0FE0A0E1 	 mov lr, pc
 2903 1cf0 01F0A0E1 	 mov pc, r1
 2904              	@ L       K1234
 2905 1cf4 D240A0E3 	 mov ra, #210 @ 000000D2
 2906 1cf8 014B84E3 	 orr ra, ra, #1024 @ 00000400
 2907              	@ SP      P23
 2908 1cfc 5C408AE5 	 str ra, [rp, #+92] @ 0000005C
 2909              	@ LKG     K1 G205
 2910 1d00 34439BE5 	 ldr ra, [rg, #+820] @ 00000334
 2911 1d04 0410A0E3 	 mov r1, #4 @ 00000004
 2912 1d08 044191E7 	 ldr ra, [r1, ra, lsl #2]
 2913              	@ KPG     P19 G208
 2914 1d0c 40139BE5 	 ldr r1, [rg, #+832] @ 00000340
 2915 1d10 4C208AE2 	 add r2, rp, #76 @ 0000004C
 2916 1d14 0FE0A0E1 	 mov lr, pc
 2917 1d18 01F0A0E1 	 mov pc, r1
 2918              	@ LKG     K0 G205
 2919 1d1c 34439BE5 	 ldr ra, [rg, #+820] @ 00000334
 2920 1d20 0010A0E3 	 mov r1, #0 @ 00000000
 2921 1d24 044191E7 	 ldr ra, [r1, ra, lsl #2]
 2922              	@ S       K998
 2923 1d28 E64044E2 	 sub ra, ra, #230 @ 000000E6
 2924 1d2c 034C44E2 	 sub ra, ra, #768 @ 00000300
 2925              	@ AG      G205
ARM GAS  temps/cmpltest.s 			page 53


 2926 1d30 34139BE5 	 ldr r1, [rg, #+820] @ 00000334
 2927 1d34 014084E0 	 add ra, ra, r1
 2928              	@ RV
 2929 1d38 041084E0 	 add r1, ra, ra
 2930 1d3c 014091E7 	 ldr ra, [r1, r1]
 2931              	@ ATB
 2932 1d40 0450A0E1 	 mov rb, ra
 2933              	@ L       K5678
 2934 1d44 2E40A0E3 	 mov ra, #46 @ 0000002E
 2935 1d48 164C84E3 	 orr ra, ra, #5632 @ 00001600
 2936              	@ SP      P23
 2937 1d4c 5C408AE5 	 str ra, [rp, #+92] @ 0000005C
 2938              	@ XCH
 2939 1d50 0410A0E1 	 mov r1, ra
 2940 1d54 0540A0E1 	 mov ra, rb
 2941 1d58 0150A0E1 	 mov rb, r1
 2942              	@ KPG     P19 G208
 2943 1d5c 40139BE5 	 ldr r1, [rg, #+832] @ 00000340
 2944 1d60 4C208AE2 	 add r2, rp, #76 @ 0000004C
 2945 1d64 0FE0A0E1 	 mov lr, pc
 2946 1d68 01F0A0E1 	 mov pc, r1
 2947              	@ L       K90
 2948 1d6c 5A40A0E3 	 mov ra, #90 @ 0000005A
 2949              	@ SG      G203
 2950 1d70 2C438BE5 	 str ra, [rg, #+812] @ 0000032C
 2951              	@ L       K10000
 2952 1d74 714EA0E3 	 mov ra, #1808 @ 00000710
 2953 1d78 024A84E3 	 orr ra, ra, #8192 @ 00002000
 2954              	@ SP      P23
 2955 1d7c 5C408AE5 	 str ra, [rp, #+92] @ 0000005C
 2956              	@ LKG     K0 G253
 2957 1d80 F4439BE5 	 ldr ra, [rg, #+1012] @ 000003F4
 2958 1d84 0010A0E3 	 mov r1, #0 @ 00000000
 2959 1d88 044191E7 	 ldr ra, [r1, ra, lsl #2]
 2960              	@ KPG     P19 G208
 2961 1d8c 40139BE5 	 ldr r1, [rg, #+832] @ 00000340
 2962 1d90 4C208AE2 	 add r2, rp, #76 @ 0000004C
 2963 1d94 0FE0A0E1 	 mov lr, pc
 2964 1d98 01F0A0E1 	 mov pc, r1
 2965              	@ L       K10000
 2966 1d9c 714EA0E3 	 mov ra, #1808 @ 00000710
 2967 1da0 024A84E3 	 orr ra, ra, #8192 @ 00002000
 2968              	@ SP      P23
 2969 1da4 5C408AE5 	 str ra, [rp, #+92] @ 0000005C
 2970              	@ LKG     K0 G253
 2971 1da8 F4439BE5 	 ldr ra, [rg, #+1012] @ 000003F4
 2972 1dac 0010A0E3 	 mov r1, #0 @ 00000000
 2973 1db0 044191E7 	 ldr ra, [r1, ra, lsl #2]
 2974              	@ KPG     P19 G208
 2975 1db4 40139BE5 	 ldr r1, [rg, #+832] @ 00000340
 2976 1db8 4C208AE2 	 add r2, rp, #76 @ 0000004C
 2977 1dbc 0FE0A0E1 	 mov lr, pc
 2978 1dc0 01F0A0E1 	 mov pc, r1
 2979              	@ L       K10000
 2980 1dc4 714EA0E3 	 mov ra, #1808 @ 00000710
 2981 1dc8 024A84E3 	 orr ra, ra, #8192 @ 00002000
 2982              	@ SP      P23
ARM GAS  temps/cmpltest.s 			page 54


 2983 1dcc 5C408AE5 	 str ra, [rp, #+92] @ 0000005C
 2984              	@ LKG     K0 G253
 2985 1dd0 F4439BE5 	 ldr ra, [rg, #+1012] @ 000003F4
 2986 1dd4 0010A0E3 	 mov r1, #0 @ 00000000
 2987 1dd8 044191E7 	 ldr ra, [r1, ra, lsl #2]
 2988              	@ KPG     P19 G208
 2989 1ddc 40139BE5 	 ldr r1, [rg, #+832] @ 00000340
 2990 1de0 4C208AE2 	 add r2, rp, #76 @ 0000004C
 2991 1de4 0FE0A0E1 	 mov lr, pc
 2992 1de8 01F0A0E1 	 mov pc, r1
 2993              	@ L       K10001
 2994 1dec 1140A0E3 	 mov ra, #17 @ 00000011
 2995 1df0 274C84E3 	 orr ra, ra, #9984 @ 00002700
 2996              	@ SP      P23
 2997 1df4 5C408AE5 	 str ra, [rp, #+92] @ 0000005C
 2998              	@ LKG     K1 G253
 2999 1df8 F4439BE5 	 ldr ra, [rg, #+1012] @ 000003F4
 3000 1dfc 0410A0E3 	 mov r1, #4 @ 00000004
 3001 1e00 044191E7 	 ldr ra, [r1, ra, lsl #2]
 3002              	@ KPG     P19 G208
 3003 1e04 40139BE5 	 ldr r1, [rg, #+832] @ 00000340
 3004 1e08 4C208AE2 	 add r2, rp, #76 @ 0000004C
 3005 1e0c 0FE0A0E1 	 mov lr, pc
 3006 1e10 01F0A0E1 	 mov pc, r1
 3007              	@ L       K10001
 3008 1e14 1140A0E3 	 mov ra, #17 @ 00000011
 3009 1e18 274C84E3 	 orr ra, ra, #9984 @ 00002700
 3010              	@ SP      P23
 3011 1e1c 5C408AE5 	 str ra, [rp, #+92] @ 0000005C
 3012              	@ LKG     K1 G253
 3013 1e20 F4439BE5 	 ldr ra, [rg, #+1012] @ 000003F4
 3014 1e24 0410A0E3 	 mov r1, #4 @ 00000004
 3015 1e28 044191E7 	 ldr ra, [r1, ra, lsl #2]
 3016              	@ KPG     P19 G208
 3017 1e2c 40139BE5 	 ldr r1, [rg, #+832] @ 00000340
 3018 1e30 4C208AE2 	 add r2, rp, #76 @ 0000004C
 3019 1e34 0FE0A0E1 	 mov lr, pc
 3020 1e38 01F0A0E1 	 mov pc, r1
 3021              	@ L       K10200
 3022 1e3c F64FA0E3 	 mov ra, #984 @ 000003D8
 3023 1e40 094B84E3 	 orr ra, ra, #9216 @ 00002400
 3024              	@ SP      P23
 3025 1e44 5C408AE5 	 str ra, [rp, #+92] @ 0000005C
 3026              	@ LKG     K200 G253
 3027 1e48 F4439BE5 	 ldr ra, [rg, #+1012] @ 000003F4
 3028 1e4c 321EA0E3 	 mov r1, #800 @ 00000320
 3029 1e50 044191E7 	 ldr ra, [r1, ra, lsl #2]
 3030              	@ KPG     P19 G208
 3031 1e54 40139BE5 	 ldr r1, [rg, #+832] @ 00000340
 3032 1e58 4C208AE2 	 add r2, rp, #76 @ 0000004C
 3033 1e5c 0FE0A0E1 	 mov lr, pc
 3034 1e60 01F0A0E1 	 mov pc, r1
 3035              	@ LM      K1
 3036 1e64 0040E0E3 	 mvn ra, #0 @ 00000000
 3037              	@ SG      G250
 3038 1e68 E8438BE5 	 str ra, [rg, #+1000] @ 000003E8
 3039              	@ L       K0
ARM GAS  temps/cmpltest.s 			page 55


 3040 1e6c 0040A0E3 	 mov ra, #0 @ 00000000
 3041              	@ SG      G251
 3042 1e70 EC438BE5 	 str ra, [rg, #+1004] @ 000003EC
 3043              	@ LG      G250
 3044 1e74 E8439BE5 	 ldr ra, [rg, #+1000] @ 000003E8
 3045              	@ JEQ0    L36
 3046 1e78 000054E3 	 cmp ra, #0
 3047 1e7c A007000A 	 beq LA36
 3048              	@ L       K16
 3049 1e80 1040A0E3 	 mov ra, #16 @ 00000010
 3050              	@ SP      P3
 3051 1e84 0C408AE5 	 str ra, [rp, #+12] @ 0000000C
 3052              	@ LAB     L36
 3053              	LA36:
 3054              	@ L       K16
 3055 1e88 1040A0E3 	 mov ra, #16 @ 00000010
 3056              	@ SP      P23
 3057 1e8c 5C408AE5 	 str ra, [rp, #+92] @ 0000005C
 3058              	@ LP      P3
 3059 1e90 0C409AE5 	 ldr ra, [rp, #+12] @ 0000000C
 3060              	@ KPG     P19 G208
 3061 1e94 40139BE5 	 ldr r1, [rg, #+832] @ 00000340
 3062 1e98 4C208AE2 	 add r2, rp, #76 @ 0000004C
 3063 1e9c 0FE0A0E1 	 mov lr, pc
 3064 1ea0 01F0A0E1 	 mov pc, r1
 3065              	@ L       K16
 3066 1ea4 1040A0E3 	 mov ra, #16 @ 00000010
 3067              	@ SP      P3
 3068 1ea8 0C408AE5 	 str ra, [rp, #+12] @ 0000000C
 3069              	@ LG      G251
 3070 1eac EC439BE5 	 ldr ra, [rg, #+1004] @ 000003EC
 3071              	@ JEQ0    L37
 3072 1eb0 000054E3 	 cmp ra, #0
 3073 1eb4 AE07000A 	 beq LA37
 3074              	@ L       K15
 3075 1eb8 0F40A0E3 	 mov ra, #15 @ 0000000F
 3076              	@ SP      P3
 3077 1ebc 0C408AE5 	 str ra, [rp, #+12] @ 0000000C
 3078              	@ LAB     L37
 3079              	LA37:
 3080              	@ L       K16
 3081 1ec0 1040A0E3 	 mov ra, #16 @ 00000010
 3082              	@ SP      P23
 3083 1ec4 5C408AE5 	 str ra, [rp, #+92] @ 0000005C
 3084              	@ LP      P3
 3085 1ec8 0C409AE5 	 ldr ra, [rp, #+12] @ 0000000C
 3086              	@ KPG     P19 G208
 3087 1ecc 40139BE5 	 ldr r1, [rg, #+832] @ 00000340
 3088 1ed0 4C208AE2 	 add r2, rp, #76 @ 0000004C
 3089 1ed4 0FE0A0E1 	 mov lr, pc
 3090 1ed8 01F0A0E1 	 mov pc, r1
 3091              	@ L       K15
 3092 1edc 0F40A0E3 	 mov ra, #15 @ 0000000F
 3093              	@ SP      P3
 3094 1ee0 0C408AE5 	 str ra, [rp, #+12] @ 0000000C
 3095              	@ LLP     P20
 3096 1ee4 1440A0E3 	 mov ra, #20 @ 00000014
ARM GAS  temps/cmpltest.s 			page 56


 3097 1ee8 2A4184E0 	 add ra, ra, rp, lsr #2
 3098              	@ SP      P19
 3099 1eec 4C408AE5 	 str ra, [rp, #+76] @ 0000004C
 3100              	@ LF      L34
 3101 1ef0 40408FE2 	 adrl ra, LA34
 3101      0000A0E1 
 3102              	@ SG      G250
 3103 1ef8 E8438BE5 	 str ra, [rg, #+1000] @ 000003E8
 3104              	@ GOTO
 3105 1efc 04F0A0E1 	 mov pc, ra
 3106              	 .ltorg
 3107              	
 3108              	@ LAB     L38
 3109              	LA38:
 3110              	@ LSTR    M10
 3111 1f00 74408FE2 	 adrl ra, MA10
 3111      2C4C84E2 
 3112 1f08 2441A0E1 	 mov ra, ra, lsr #2
 3113              	@ ATB
 3114 1f0c 0450A0E1 	 mov rb, ra
 3115              	@ LF      L2
 3116 1f10 F0404FE2 	 adrl ra, LA2
 3116      1E4C44E2 
 3117              	@ K       P41
 3118 1f18 A4208AE2 	 add r2, rp, #164 @ 000000A4
 3119 1f1c 0410A0E1 	 mov r1, ra
 3120 1f20 0540A0E1 	 mov ra, rb
 3121 1f24 0FE0A0E1 	 mov lr, pc
 3122 1f28 01F0A0E1 	 mov pc, r1
 3123              	@ IKG     K1 G204
 3124 1f2c 30439BE5 	 ldr ra, [rg, #+816] @ 00000330
 3125 1f30 014084E2 	 add ra, ra, #1 @ 00000001
 3126 1f34 30438BE5 	 str ra, [rg, #+816] @ 00000330
 3127              	@ LAB     L34
 3128              	LA34:
 3129              	@ L       K11
 3130 1f38 0B40A0E3 	 mov ra, #11 @ 0000000B
 3131              	@ LAB     L39
 3132              	LA39:
 3133              	@ SG      G250
 3134 1f3c E8438BE5 	 str ra, [rg, #+1000] @ 000003E8
 3135              	@ L       K11
 3136 1f40 0B40A0E3 	 mov ra, #11 @ 0000000B
 3137              	@ SP      P23
 3138 1f44 5C408AE5 	 str ra, [rp, #+92] @ 0000005C
 3139              	@ LG      G250
 3140 1f48 E8439BE5 	 ldr ra, [rg, #+1000] @ 000003E8
 3141              	@ KPG     P19 G208
 3142 1f4c 40139BE5 	 ldr r1, [rg, #+832] @ 00000340
 3143 1f50 4C208AE2 	 add r2, rp, #76 @ 0000004C
 3144 1f54 0FE0A0E1 	 mov lr, pc
 3145 1f58 01F0A0E1 	 mov pc, r1
 3146              	@ L       K100
 3147 1f5c 6440A0E3 	 mov ra, #100 @ 00000064
 3148              	@ SG      G203
 3149 1f60 2C438BE5 	 str ra, [rg, #+812] @ 0000032C
 3150              	@ LLP     P20
ARM GAS  temps/cmpltest.s 			page 57


 3151 1f64 1440A0E3 	 mov ra, #20 @ 00000014
 3152 1f68 2A4184E0 	 add ra, ra, rp, lsr #2
 3153              	@ SP      P19
 3154 1f6c 4C408AE5 	 str ra, [rp, #+76] @ 0000004C
 3155              	@ LM      K1
 3156 1f70 0040E0E3 	 mvn ra, #0 @ 00000000
 3157              	@ STKP    K0 P19
 3158 1f74 4C109AE5 	 ldr r1, [rp, #+76] @ 0000004C
 3159 1f78 0020A0E3 	 mov r2, #0 @ 00000000
 3160 1f7c 014182E7 	 str ra, [r2, r1, lsl #2]
 3161              	@ LM      K2
 3162 1f80 0140E0E3 	 mvn ra, #1 @ 00000001
 3163              	@ STKP    K1 P19
 3164 1f84 4C109AE5 	 ldr r1, [rp, #+76] @ 0000004C
 3165 1f88 0420A0E3 	 mov r2, #4 @ 00000004
 3166 1f8c 014182E7 	 str ra, [r2, r1, lsl #2]
 3167              	@ LLP     P23
 3168 1f90 1740A0E3 	 mov ra, #23 @ 00000017
 3169 1f94 2A4184E0 	 add ra, ra, rp, lsr #2
 3170              	@ SP      P22
 3171 1f98 58408AE5 	 str ra, [rp, #+88] @ 00000058
 3172              	@ L       K0
 3173 1f9c 0040A0E3 	 mov ra, #0 @ 00000000
 3174              	@ SP      P34
 3175 1fa0 88408AE5 	 str ra, [rp, #+136] @ 00000088
 3176              	@ LAB     L40
 3177              	LA40:
 3178              	@ LP      P34
 3179 1fa4 88409AE5 	 ldr ra, [rp, #+136] @ 00000088
 3180              	@ NEG
 3181 1fa8 004064E2 	 rsb ra, ra, #0
 3182              	@ ATB
 3183 1fac 0450A0E1 	 mov rb, ra
 3184              	@ LP      P34
 3185 1fb0 88409AE5 	 ldr ra, [rp, #+136] @ 00000088
 3186              	@ AP      P22
 3187 1fb4 58109AE5 	 ldr r1, [rp, #+88] @ 00000058
 3188 1fb8 014084E0 	 add ra, ra, r1
 3189              	@ ST
 3190 1fbc 0010A0E3 	 mov r1, #0
 3191 1fc0 045181E7 	 str rb, [r1, ra, lsl #2]
 3192              	@ IKP     K1 P34
 3193 1fc4 88409AE5 	 ldr ra, [rp, #+136] @ 00000088
 3194 1fc8 014084E2 	 add ra, ra, #1 @ 00000001
 3195 1fcc 88408AE5 	 str ra, [rp, #+136] @ 00000088
 3196              	@ ATBL    K10
 3197 1fd0 0450A0E1 	 mov rb, ra
 3198 1fd4 0A40A0E3 	 mov ra, #10 @ 0000000A
 3199              	@ JLE     L40
 3200 1fd8 040055E1 	 cmp rb, ra
 3201 1fdc E70700DA 	 ble LA40
 3202              	@ LM      K5
 3203 1fe0 0440E0E3 	 mvn ra, #4 @ 00000004
 3204              	@ SP      P38
 3205 1fe4 98408AE5 	 str ra, [rp, #+152] @ 00000098
 3206              	@ LKP     K5 P22
 3207 1fe8 58409AE5 	 ldr ra, [rp, #+88] @ 00000058
ARM GAS  temps/cmpltest.s 			page 58


 3208 1fec 1410A0E3 	 mov r1, #20 @ 00000014
 3209 1ff0 044191E7 	 ldr ra, [r1, ra, lsl #2]
 3210              	@ KPG     P34 G208
 3211 1ff4 40139BE5 	 ldr r1, [rg, #+832] @ 00000340
 3212 1ff8 88208AE2 	 add r2, rp, #136 @ 00000088
 3213 1ffc 0FE0A0E1 	 mov lr, pc
 3214 2000 01F0A0E1 	 mov pc, r1
 3215              	@ LM      K2
 3216 2004 0140E0E3 	 mvn ra, #1 @ 00000001
 3217              	@ SP      P26
 3218 2008 68408AE5 	 str ra, [rp, #+104] @ 00000068
 3219              	@ LKP     K1 P19
 3220 200c 4C409AE5 	 ldr ra, [rp, #+76] @ 0000004C
 3221 2010 0410A0E3 	 mov r1, #4 @ 00000004
 3222 2014 044191E7 	 ldr ra, [r1, ra, lsl #2]
 3223              	@ KPG     P22 G208
 3224 2018 40139BE5 	 ldr r1, [rg, #+832] @ 00000340
 3225 201c 58208AE2 	 add r2, rp, #88 @ 00000058
 3226 2020 0FE0A0E1 	 mov lr, pc
 3227 2024 01F0A0E1 	 mov pc, r1
 3228              	@ L       K105
 3229 2028 6940A0E3 	 mov ra, #105 @ 00000069
 3230              	@ SP      P28
 3231 202c 70408AE5 	 str ra, [rp, #+112] @ 00000070
 3232              	@ LG      G200
 3233 2030 20439BE5 	 ldr ra, [rg, #+800] @ 00000320
 3234              	@ KPG     P24 G208
 3235 2034 40139BE5 	 ldr r1, [rg, #+832] @ 00000340
 3236 2038 60208AE2 	 add r2, rp, #96 @ 00000060
 3237 203c 0FE0A0E1 	 mov lr, pc
 3238 2040 01F0A0E1 	 mov pc, r1
 3239              	@ SP      P24
 3240 2044 60408AE5 	 str ra, [rp, #+96] @ 00000060
 3241              	@ L       K11
 3242 2048 0B40A0E3 	 mov ra, #11 @ 0000000B
 3243              	@ SP      P29
 3244 204c 74408AE5 	 str ra, [rp, #+116] @ 00000074
 3245              	@ LG      G250
 3246 2050 E8439BE5 	 ldr ra, [rg, #+1000] @ 000003E8
 3247              	@ KPG     P25 G208
 3248 2054 40139BE5 	 ldr r1, [rg, #+832] @ 00000340
 3249 2058 64208AE2 	 add r2, rp, #100 @ 00000064
 3250 205c 0FE0A0E1 	 mov lr, pc
 3251 2060 01F0A0E1 	 mov pc, r1
 3252              	@ SP      P25
 3253 2064 64408AE5 	 str ra, [rp, #+100] @ 00000064
 3254              	@ L       K15
 3255 2068 0F40A0E3 	 mov ra, #15 @ 0000000F
 3256              	@ SP      P23
 3257 206c 5C408AE5 	 str ra, [rp, #+92] @ 0000005C
 3258              	@ LP      P3
 3259 2070 0C409AE5 	 ldr ra, [rp, #+12] @ 0000000C
 3260              	@ KPG     P19 G208
 3261 2074 40139BE5 	 ldr r1, [rg, #+832] @ 00000340
 3262 2078 4C208AE2 	 add r2, rp, #76 @ 0000004C
 3263 207c 0FE0A0E1 	 mov lr, pc
 3264 2080 01F0A0E1 	 mov pc, r1
ARM GAS  temps/cmpltest.s 			page 59


 3265              	@ AP      P3
 3266 2084 0C109AE5 	 ldr r1, [rp, #+12] @ 0000000C
 3267 2088 014084E0 	 add ra, ra, r1
 3268              	@ S       K15
 3269 208c 0F4044E2 	 sub ra, ra, #15 @ 0000000F
 3270              	@ SP      P3
 3271 2090 0C408AE5 	 str ra, [rp, #+12] @ 0000000C
 3272              	@ L       K15
 3273 2094 0F40A0E3 	 mov ra, #15 @ 0000000F
 3274              	@ SP      P23
 3275 2098 5C408AE5 	 str ra, [rp, #+92] @ 0000005C
 3276              	@ LP      P3
 3277 209c 0C409AE5 	 ldr ra, [rp, #+12] @ 0000000C
 3278              	@ KPG     P19 G208
 3279 20a0 40139BE5 	 ldr r1, [rg, #+832] @ 00000340
 3280 20a4 4C208AE2 	 add r2, rp, #76 @ 0000004C
 3281 20a8 0FE0A0E1 	 mov lr, pc
 3282 20ac 01F0A0E1 	 mov pc, r1
 3283              	@ IKP     K1 P3
 3284 20b0 0C409AE5 	 ldr ra, [rp, #+12] @ 0000000C
 3285 20b4 014084E2 	 add ra, ra, #1 @ 00000001
 3286 20b8 0C408AE5 	 str ra, [rp, #+12] @ 0000000C
 3287              	@ L       K16
 3288 20bc 1040A0E3 	 mov ra, #16 @ 00000010
 3289              	@ SP      P23
 3290 20c0 5C408AE5 	 str ra, [rp, #+92] @ 0000005C
 3291              	@ LP      P3
 3292 20c4 0C409AE5 	 ldr ra, [rp, #+12] @ 0000000C
 3293              	@ KPG     P19 G208
 3294 20c8 40139BE5 	 ldr r1, [rg, #+832] @ 00000340
 3295 20cc 4C208AE2 	 add r2, rp, #76 @ 0000004C
 3296 20d0 0FE0A0E1 	 mov lr, pc
 3297 20d4 01F0A0E1 	 mov pc, r1
 3298              	@ IKP     K-1 P3
 3299 20d8 0C409AE5 	 ldr ra, [rp, #+12] @ 0000000C
 3300 20dc 014044E2 	 sub ra, ra, #1 @ 00000001
 3301 20e0 0C408AE5 	 str ra, [rp, #+12] @ 0000000C
 3302              	@ L       K15
 3303 20e4 0F40A0E3 	 mov ra, #15 @ 0000000F
 3304              	@ SP      P23
 3305 20e8 5C408AE5 	 str ra, [rp, #+92] @ 0000005C
 3306              	@ LP      P3
 3307 20ec 0C409AE5 	 ldr ra, [rp, #+12] @ 0000000C
 3308              	@ KPG     P19 G208
 3309 20f0 40139BE5 	 ldr r1, [rg, #+832] @ 00000340
 3310 20f4 4C208AE2 	 add r2, rp, #76 @ 0000004C
 3311 20f8 0FE0A0E1 	 mov lr, pc
 3312 20fc 01F0A0E1 	 mov pc, r1
 3313              	@ IKP     K7 P3
 3314 2100 0C409AE5 	 ldr ra, [rp, #+12] @ 0000000C
 3315 2104 074084E2 	 add ra, ra, #7 @ 00000007
 3316 2108 0C408AE5 	 str ra, [rp, #+12] @ 0000000C
 3317              	@ L       K22
 3318 210c 1640A0E3 	 mov ra, #22 @ 00000016
 3319              	@ SP      P23
 3320 2110 5C408AE5 	 str ra, [rp, #+92] @ 0000005C
 3321              	@ LP      P3
ARM GAS  temps/cmpltest.s 			page 60


 3322 2114 0C409AE5 	 ldr ra, [rp, #+12] @ 0000000C
 3323              	@ KPG     P19 G208
 3324 2118 40139BE5 	 ldr r1, [rg, #+832] @ 00000340
 3325 211c 4C208AE2 	 add r2, rp, #76 @ 0000004C
 3326 2120 0FE0A0E1 	 mov lr, pc
 3327 2124 01F0A0E1 	 mov pc, r1
 3328              	@ IKP     K-22 P3
 3329 2128 0C409AE5 	 ldr ra, [rp, #+12] @ 0000000C
 3330 212c 164044E2 	 sub ra, ra, #22 @ 00000016
 3331 2130 0C408AE5 	 str ra, [rp, #+12] @ 0000000C
 3332              	@ L       K0
 3333 2134 0040A0E3 	 mov ra, #0 @ 00000000
 3334              	@ SP      P23
 3335 2138 5C408AE5 	 str ra, [rp, #+92] @ 0000005C
 3336              	@ LP      P3
 3337 213c 0C409AE5 	 ldr ra, [rp, #+12] @ 0000000C
 3338              	@ KPG     P19 G208
 3339 2140 40139BE5 	 ldr r1, [rg, #+832] @ 00000340
 3340 2144 4C208AE2 	 add r2, rp, #76 @ 0000004C
 3341 2148 0FE0A0E1 	 mov lr, pc
 3342 214c 01F0A0E1 	 mov pc, r1
 3343              	@ IKP     K15 P3
 3344 2150 0C409AE5 	 ldr ra, [rp, #+12] @ 0000000C
 3345 2154 0F4084E2 	 add ra, ra, #15 @ 0000000F
 3346 2158 0C408AE5 	 str ra, [rp, #+12] @ 0000000C
 3347              	@ L       K15
 3348 215c 0F40A0E3 	 mov ra, #15 @ 0000000F
 3349              	@ SP      P23
 3350 2160 5C408AE5 	 str ra, [rp, #+92] @ 0000005C
 3351              	@ LP      P3
 3352 2164 0C409AE5 	 ldr ra, [rp, #+12] @ 0000000C
 3353              	@ KPG     P19 G208
 3354 2168 40139BE5 	 ldr r1, [rg, #+832] @ 00000340
 3355 216c 4C208AE2 	 add r2, rp, #76 @ 0000004C
 3356 2170 0FE0A0E1 	 mov lr, pc
 3357 2174 01F0A0E1 	 mov pc, r1
 3358              	@ LG      G200
 3359 2178 20439BE5 	 ldr ra, [rg, #+800] @ 00000320
 3360              	@ IP      P3
 3361 217c 0C109AE5 	 ldr r1, [rp, #+12] @ 0000000C
 3362 2180 044081E0 	 add ra, r1, ra
 3363 2184 0C408AE5 	 str ra, [rp, #+12] @ 0000000C
 3364              	@ L       K120
 3365 2188 7840A0E3 	 mov ra, #120 @ 00000078
 3366              	@ SP      P23
 3367 218c 5C408AE5 	 str ra, [rp, #+92] @ 0000005C
 3368              	@ LP      P3
 3369 2190 0C409AE5 	 ldr ra, [rp, #+12] @ 0000000C
 3370              	@ KPG     P19 G208
 3371 2194 40139BE5 	 ldr r1, [rg, #+832] @ 00000340
 3372 2198 4C208AE2 	 add r2, rp, #76 @ 0000004C
 3373 219c 0FE0A0E1 	 mov lr, pc
 3374 21a0 01F0A0E1 	 mov pc, r1
 3375              	@ L       K1
 3376 21a4 0140A0E3 	 mov ra, #1 @ 00000001
 3377              	@ SP      P3
 3378 21a8 0C408AE5 	 str ra, [rp, #+12] @ 0000000C
ARM GAS  temps/cmpltest.s 			page 61


 3379              	@ L       K130
 3380 21ac 8240A0E3 	 mov ra, #130 @ 00000082
 3381              	@ SG      G203
 3382 21b0 2C438BE5 	 str ra, [rg, #+812] @ 0000032C
 3383              	@ L       K105
 3384 21b4 6940A0E3 	 mov ra, #105 @ 00000069
 3385              	@ SG      G200
 3386 21b8 20438BE5 	 str ra, [rg, #+800] @ 00000320
 3387              	@ ATB
 3388 21bc 0450A0E1 	 mov rb, ra
 3389              	@ JNE     L42
 3390 21c0 040055E1 	 cmp rb, ra
 3391 21c4 7208001A 	 bne LA42
 3392              	@ L       K1
 3393 21c8 0140A0E3 	 mov ra, #1 @ 00000001
 3394              	@ J       L41
 3395 21cc 730800EA 	 b LA41
 3396              	 .ltorg
 3397              	
 3398              	@ LAB     L42
 3399              	LA42:
 3400              	@ L       K2
 3401 21d0 0240A0E3 	 mov ra, #2 @ 00000002
 3402              	@ LAB     L41
 3403              	LA41:
 3404              	@ ATB
 3405 21d4 0450A0E1 	 mov rb, ra
 3406              	@ L       K1
 3407 21d8 0140A0E3 	 mov ra, #1 @ 00000001
 3408              	@ SP      P23
 3409 21dc 5C408AE5 	 str ra, [rp, #+92] @ 0000005C
 3410              	@ XCH
 3411 21e0 0410A0E1 	 mov r1, ra
 3412 21e4 0540A0E1 	 mov ra, rb
 3413 21e8 0150A0E1 	 mov rb, r1
 3414              	@ KPG     P19 G208
 3415 21ec 40139BE5 	 ldr r1, [rg, #+832] @ 00000340
 3416 21f0 4C208AE2 	 add r2, rp, #76 @ 0000004C
 3417 21f4 0FE0A0E1 	 mov lr, pc
 3418 21f8 01F0A0E1 	 mov pc, r1
 3419              	@ L       K105
 3420 21fc 6940A0E3 	 mov ra, #105 @ 00000069
 3421              	@ ATBLG   G200
 3422 2200 0450A0E1 	 mov rb, ra
 3423 2204 20439BE5 	 ldr ra, [rg, #+800] @ 00000320
 3424              	@ JEQ     L44
 3425 2208 040055E1 	 cmp rb, ra
 3426 220c 8408000A 	 beq LA44
 3427              	@ L       K1
 3428 2210 0140A0E3 	 mov ra, #1 @ 00000001
 3429              	@ J       L43
 3430 2214 850800EA 	 b LA43
 3431              	 .ltorg
 3432              	
 3433              	@ LAB     L44
 3434              	LA44:
 3435              	@ L       K2
ARM GAS  temps/cmpltest.s 			page 62


 3436 2218 0240A0E3 	 mov ra, #2 @ 00000002
 3437              	@ LAB     L43
 3438              	LA43:
 3439              	@ ATB
 3440 221c 0450A0E1 	 mov rb, ra
 3441              	@ L       K2
 3442 2220 0240A0E3 	 mov ra, #2 @ 00000002
 3443              	@ SP      P23
 3444 2224 5C408AE5 	 str ra, [rp, #+92] @ 0000005C
 3445              	@ XCH
 3446 2228 0410A0E1 	 mov r1, ra
 3447 222c 0540A0E1 	 mov ra, rb
 3448 2230 0150A0E1 	 mov rb, r1
 3449              	@ KPG     P19 G208
 3450 2234 40139BE5 	 ldr r1, [rg, #+832] @ 00000340
 3451 2238 4C208AE2 	 add r2, rp, #76 @ 0000004C
 3452 223c 0FE0A0E1 	 mov lr, pc
 3453 2240 01F0A0E1 	 mov pc, r1
 3454              	@ LG      G200
 3455 2244 20439BE5 	 ldr ra, [rg, #+800] @ 00000320
 3456              	@ ATBL    K105
 3457 2248 0450A0E1 	 mov rb, ra
 3458 224c 6940A0E3 	 mov ra, #105 @ 00000069
 3459              	@ JGE     L46
 3460 2250 040055E1 	 cmp rb, ra
 3461 2254 960800AA 	 bge LA46
 3462              	@ L       K1
 3463 2258 0140A0E3 	 mov ra, #1 @ 00000001
 3464              	@ J       L45
 3465 225c 970800EA 	 b LA45
 3466              	 .ltorg
 3467              	
 3468              	@ LAB     L46
 3469              	LA46:
 3470              	@ L       K2
 3471 2260 0240A0E3 	 mov ra, #2 @ 00000002
 3472              	@ LAB     L45
 3473              	LA45:
 3474              	@ ATB
 3475 2264 0450A0E1 	 mov rb, ra
 3476              	@ L       K2
 3477 2268 0240A0E3 	 mov ra, #2 @ 00000002
 3478              	@ SP      P23
 3479 226c 5C408AE5 	 str ra, [rp, #+92] @ 0000005C
 3480              	@ XCH
 3481 2270 0410A0E1 	 mov r1, ra
 3482 2274 0540A0E1 	 mov ra, rb
 3483 2278 0150A0E1 	 mov rb, r1
 3484              	@ KPG     P19 G208
 3485 227c 40139BE5 	 ldr r1, [rg, #+832] @ 00000340
 3486 2280 4C208AE2 	 add r2, rp, #76 @ 0000004C
 3487 2284 0FE0A0E1 	 mov lr, pc
 3488 2288 01F0A0E1 	 mov pc, r1
 3489              	@ LG      G200
 3490 228c 20439BE5 	 ldr ra, [rg, #+800] @ 00000320
 3491              	@ ATBL    K105
 3492 2290 0450A0E1 	 mov rb, ra
ARM GAS  temps/cmpltest.s 			page 63


 3493 2294 6940A0E3 	 mov ra, #105 @ 00000069
 3494              	@ JLS     L48
 3495 2298 040055E1 	 cmp rb, ra
 3496 229c A80800BA 	 blt LA48
 3497              	@ L       K1
 3498 22a0 0140A0E3 	 mov ra, #1 @ 00000001
 3499              	@ J       L47
 3500 22a4 A90800EA 	 b LA47
 3501              	 .ltorg
 3502              	
 3503              	@ LAB     L48
 3504              	LA48:
 3505              	@ L       K2
 3506 22a8 0240A0E3 	 mov ra, #2 @ 00000002
 3507              	@ LAB     L47
 3508              	LA47:
 3509              	@ ATB
 3510 22ac 0450A0E1 	 mov rb, ra
 3511              	@ L       K1
 3512 22b0 0140A0E3 	 mov ra, #1 @ 00000001
 3513              	@ SP      P23
 3514 22b4 5C408AE5 	 str ra, [rp, #+92] @ 0000005C
 3515              	@ XCH
 3516 22b8 0410A0E1 	 mov r1, ra
 3517 22bc 0540A0E1 	 mov ra, rb
 3518 22c0 0150A0E1 	 mov rb, r1
 3519              	@ KPG     P19 G208
 3520 22c4 40139BE5 	 ldr r1, [rg, #+832] @ 00000340
 3521 22c8 4C208AE2 	 add r2, rp, #76 @ 0000004C
 3522 22cc 0FE0A0E1 	 mov lr, pc
 3523 22d0 01F0A0E1 	 mov pc, r1
 3524              	@ LG      G200
 3525 22d4 20439BE5 	 ldr ra, [rg, #+800] @ 00000320
 3526              	@ ATBL    K105
 3527 22d8 0450A0E1 	 mov rb, ra
 3528 22dc 6940A0E3 	 mov ra, #105 @ 00000069
 3529              	@ JLE     L50
 3530 22e0 040055E1 	 cmp rb, ra
 3531 22e4 BA0800DA 	 ble LA50
 3532              	@ L       K1
 3533 22e8 0140A0E3 	 mov ra, #1 @ 00000001
 3534              	@ J       L49
 3535 22ec BB0800EA 	 b LA49
 3536              	 .ltorg
 3537              	
 3538              	@ LAB     L50
 3539              	LA50:
 3540              	@ L       K2
 3541 22f0 0240A0E3 	 mov ra, #2 @ 00000002
 3542              	@ LAB     L49
 3543              	LA49:
 3544              	@ ATB
 3545 22f4 0450A0E1 	 mov rb, ra
 3546              	@ L       K2
 3547 22f8 0240A0E3 	 mov ra, #2 @ 00000002
 3548              	@ SP      P23
 3549 22fc 5C408AE5 	 str ra, [rp, #+92] @ 0000005C
ARM GAS  temps/cmpltest.s 			page 64


 3550              	@ XCH
 3551 2300 0410A0E1 	 mov r1, ra
 3552 2304 0540A0E1 	 mov ra, rb
 3553 2308 0150A0E1 	 mov rb, r1
 3554              	@ KPG     P19 G208
 3555 230c 40139BE5 	 ldr r1, [rg, #+832] @ 00000340
 3556 2310 4C208AE2 	 add r2, rp, #76 @ 0000004C
 3557 2314 0FE0A0E1 	 mov lr, pc
 3558 2318 01F0A0E1 	 mov pc, r1
 3559              	@ LG      G200
 3560 231c 20439BE5 	 ldr ra, [rg, #+800] @ 00000320
 3561              	@ ATBL    K105
 3562 2320 0450A0E1 	 mov rb, ra
 3563 2324 6940A0E3 	 mov ra, #105 @ 00000069
 3564              	@ JGR     L52
 3565 2328 040055E1 	 cmp rb, ra
 3566 232c CC0800CA 	 bgt LA52
 3567              	@ L       K1
 3568 2330 0140A0E3 	 mov ra, #1 @ 00000001
 3569              	@ J       L51
 3570 2334 CD0800EA 	 b LA51
 3571              	 .ltorg
 3572              	
 3573              	@ LAB     L52
 3574              	LA52:
 3575              	@ L       K2
 3576 2338 0240A0E3 	 mov ra, #2 @ 00000002
 3577              	@ LAB     L51
 3578              	LA51:
 3579              	@ ATB
 3580 233c 0450A0E1 	 mov rb, ra
 3581              	@ L       K1
 3582 2340 0140A0E3 	 mov ra, #1 @ 00000001
 3583              	@ SP      P23
 3584 2344 5C408AE5 	 str ra, [rp, #+92] @ 0000005C
 3585              	@ XCH
 3586 2348 0410A0E1 	 mov r1, ra
 3587 234c 0540A0E1 	 mov ra, rb
 3588 2350 0150A0E1 	 mov rb, r1
 3589              	@ KPG     P19 G208
 3590 2354 40139BE5 	 ldr r1, [rg, #+832] @ 00000340
 3591 2358 4C208AE2 	 add r2, rp, #76 @ 0000004C
 3592 235c 0FE0A0E1 	 mov lr, pc
 3593 2360 01F0A0E1 	 mov pc, r1
 3594              	@ L       K104
 3595 2364 6840A0E3 	 mov ra, #104 @ 00000068
 3596              	@ SG      G200
 3597 2368 20438BE5 	 str ra, [rg, #+800] @ 00000320
 3598              	@ ATBL    K105
 3599 236c 0450A0E1 	 mov rb, ra
 3600 2370 6940A0E3 	 mov ra, #105 @ 00000069
 3601              	@ JNE     L54
 3602 2374 040055E1 	 cmp rb, ra
 3603 2378 DF08001A 	 bne LA54
 3604              	@ L       K1
 3605 237c 0140A0E3 	 mov ra, #1 @ 00000001
 3606              	@ J       L53
ARM GAS  temps/cmpltest.s 			page 65


 3607 2380 E00800EA 	 b LA53
 3608              	 .ltorg
 3609              	
 3610              	@ LAB     L54
 3611              	LA54:
 3612              	@ L       K2
 3613 2384 0240A0E3 	 mov ra, #2 @ 00000002
 3614              	@ LAB     L53
 3615              	LA53:
 3616              	@ ATB
 3617 2388 0450A0E1 	 mov rb, ra
 3618              	@ L       K2
 3619 238c 0240A0E3 	 mov ra, #2 @ 00000002
 3620              	@ SP      P23
 3621 2390 5C408AE5 	 str ra, [rp, #+92] @ 0000005C
 3622              	@ XCH
 3623 2394 0410A0E1 	 mov r1, ra
 3624 2398 0540A0E1 	 mov ra, rb
 3625 239c 0150A0E1 	 mov rb, r1
 3626              	@ KPG     P19 G208
 3627 23a0 40139BE5 	 ldr r1, [rg, #+832] @ 00000340
 3628 23a4 4C208AE2 	 add r2, rp, #76 @ 0000004C
 3629 23a8 0FE0A0E1 	 mov lr, pc
 3630 23ac 01F0A0E1 	 mov pc, r1
 3631              	@ L       K105
 3632 23b0 6940A0E3 	 mov ra, #105 @ 00000069
 3633              	@ ATBLG   G200
 3634 23b4 0450A0E1 	 mov rb, ra
 3635 23b8 20439BE5 	 ldr ra, [rg, #+800] @ 00000320
 3636              	@ JEQ     L56
 3637 23bc 040055E1 	 cmp rb, ra
 3638 23c0 F108000A 	 beq LA56
 3639              	@ L       K1
 3640 23c4 0140A0E3 	 mov ra, #1 @ 00000001
 3641              	@ J       L55
 3642 23c8 F20800EA 	 b LA55
 3643              	 .ltorg
 3644              	
 3645              	@ LAB     L56
 3646              	LA56:
 3647              	@ L       K2
 3648 23cc 0240A0E3 	 mov ra, #2 @ 00000002
 3649              	@ LAB     L55
 3650              	LA55:
 3651              	@ ATB
 3652 23d0 0450A0E1 	 mov rb, ra
 3653              	@ L       K1
 3654 23d4 0140A0E3 	 mov ra, #1 @ 00000001
 3655              	@ SP      P23
 3656 23d8 5C408AE5 	 str ra, [rp, #+92] @ 0000005C
 3657              	@ XCH
 3658 23dc 0410A0E1 	 mov r1, ra
 3659 23e0 0540A0E1 	 mov ra, rb
 3660 23e4 0150A0E1 	 mov rb, r1
 3661              	@ KPG     P19 G208
 3662 23e8 40139BE5 	 ldr r1, [rg, #+832] @ 00000340
 3663 23ec 4C208AE2 	 add r2, rp, #76 @ 0000004C
ARM GAS  temps/cmpltest.s 			page 66


 3664 23f0 0FE0A0E1 	 mov lr, pc
 3665 23f4 01F0A0E1 	 mov pc, r1
 3666              	@ LG      G200
 3667 23f8 20439BE5 	 ldr ra, [rg, #+800] @ 00000320
 3668              	@ ATBL    K105
 3669 23fc 0450A0E1 	 mov rb, ra
 3670 2400 6940A0E3 	 mov ra, #105 @ 00000069
 3671              	@ JGE     L58
 3672 2404 040055E1 	 cmp rb, ra
 3673 2408 030900AA 	 bge LA58
 3674              	@ L       K1
 3675 240c 0140A0E3 	 mov ra, #1 @ 00000001
 3676              	@ J       L57
 3677 2410 040900EA 	 b LA57
 3678              	 .ltorg
 3679              	
 3680              	@ LAB     L58
 3681              	LA58:
 3682              	@ L       K2
 3683 2414 0240A0E3 	 mov ra, #2 @ 00000002
 3684              	@ LAB     L57
 3685              	LA57:
 3686              	@ ATB
 3687 2418 0450A0E1 	 mov rb, ra
 3688              	@ L       K1
 3689 241c 0140A0E3 	 mov ra, #1 @ 00000001
 3690              	@ SP      P23
 3691 2420 5C408AE5 	 str ra, [rp, #+92] @ 0000005C
 3692              	@ XCH
 3693 2424 0410A0E1 	 mov r1, ra
 3694 2428 0540A0E1 	 mov ra, rb
 3695 242c 0150A0E1 	 mov rb, r1
 3696              	@ KPG     P19 G208
 3697 2430 40139BE5 	 ldr r1, [rg, #+832] @ 00000340
 3698 2434 4C208AE2 	 add r2, rp, #76 @ 0000004C
 3699 2438 0FE0A0E1 	 mov lr, pc
 3700 243c 01F0A0E1 	 mov pc, r1
 3701              	@ LG      G200
 3702 2440 20439BE5 	 ldr ra, [rg, #+800] @ 00000320
 3703              	@ ATBL    K105
 3704 2444 0450A0E1 	 mov rb, ra
 3705 2448 6940A0E3 	 mov ra, #105 @ 00000069
 3706              	@ JLS     L60
 3707 244c 040055E1 	 cmp rb, ra
 3708 2450 150900BA 	 blt LA60
 3709              	@ L       K1
 3710 2454 0140A0E3 	 mov ra, #1 @ 00000001
 3711              	@ J       L59
 3712 2458 160900EA 	 b LA59
 3713              	 .ltorg
 3714              	
 3715              	@ LAB     L60
 3716              	LA60:
 3717              	@ L       K2
 3718 245c 0240A0E3 	 mov ra, #2 @ 00000002
 3719              	@ LAB     L59
 3720              	LA59:
ARM GAS  temps/cmpltest.s 			page 67


 3721              	@ ATB
 3722 2460 0450A0E1 	 mov rb, ra
 3723              	@ L       K2
 3724 2464 0240A0E3 	 mov ra, #2 @ 00000002
 3725              	@ SP      P23
 3726 2468 5C408AE5 	 str ra, [rp, #+92] @ 0000005C
 3727              	@ XCH
 3728 246c 0410A0E1 	 mov r1, ra
 3729 2470 0540A0E1 	 mov ra, rb
 3730 2474 0150A0E1 	 mov rb, r1
 3731              	@ KPG     P19 G208
 3732 2478 40139BE5 	 ldr r1, [rg, #+832] @ 00000340
 3733 247c 4C208AE2 	 add r2, rp, #76 @ 0000004C
 3734 2480 0FE0A0E1 	 mov lr, pc
 3735 2484 01F0A0E1 	 mov pc, r1
 3736              	@ LG      G200
 3737 2488 20439BE5 	 ldr ra, [rg, #+800] @ 00000320
 3738              	@ ATBL    K105
 3739 248c 0450A0E1 	 mov rb, ra
 3740 2490 6940A0E3 	 mov ra, #105 @ 00000069
 3741              	@ JLE     L62
 3742 2494 040055E1 	 cmp rb, ra
 3743 2498 270900DA 	 ble LA62
 3744              	@ L       K1
 3745 249c 0140A0E3 	 mov ra, #1 @ 00000001
 3746              	@ J       L61
 3747 24a0 280900EA 	 b LA61
 3748              	 .ltorg
 3749              	
 3750              	@ LAB     L62
 3751              	LA62:
 3752              	@ L       K2
 3753 24a4 0240A0E3 	 mov ra, #2 @ 00000002
 3754              	@ LAB     L61
 3755              	LA61:
 3756              	@ ATB
 3757 24a8 0450A0E1 	 mov rb, ra
 3758              	@ L       K2
 3759 24ac 0240A0E3 	 mov ra, #2 @ 00000002
 3760              	@ SP      P23
 3761 24b0 5C408AE5 	 str ra, [rp, #+92] @ 0000005C
 3762              	@ XCH
 3763 24b4 0410A0E1 	 mov r1, ra
 3764 24b8 0540A0E1 	 mov ra, rb
 3765 24bc 0150A0E1 	 mov rb, r1
 3766              	@ KPG     P19 G208
 3767 24c0 40139BE5 	 ldr r1, [rg, #+832] @ 00000340
 3768 24c4 4C208AE2 	 add r2, rp, #76 @ 0000004C
 3769 24c8 0FE0A0E1 	 mov lr, pc
 3770 24cc 01F0A0E1 	 mov pc, r1
 3771              	@ LG      G200
 3772 24d0 20439BE5 	 ldr ra, [rg, #+800] @ 00000320
 3773              	@ ATBL    K105
 3774 24d4 0450A0E1 	 mov rb, ra
 3775 24d8 6940A0E3 	 mov ra, #105 @ 00000069
 3776              	@ JGR     L64
 3777 24dc 040055E1 	 cmp rb, ra
ARM GAS  temps/cmpltest.s 			page 68


 3778 24e0 390900CA 	 bgt LA64
 3779              	@ L       K1
 3780 24e4 0140A0E3 	 mov ra, #1 @ 00000001
 3781              	@ J       L63
 3782 24e8 3A0900EA 	 b LA63
 3783              	 .ltorg
 3784              	
 3785              	@ LAB     L64
 3786              	LA64:
 3787              	@ L       K2
 3788 24ec 0240A0E3 	 mov ra, #2 @ 00000002
 3789              	@ LAB     L63
 3790              	LA63:
 3791              	@ ATB
 3792 24f0 0450A0E1 	 mov rb, ra
 3793              	@ L       K1
 3794 24f4 0140A0E3 	 mov ra, #1 @ 00000001
 3795              	@ SP      P23
 3796 24f8 5C408AE5 	 str ra, [rp, #+92] @ 0000005C
 3797              	@ XCH
 3798 24fc 0410A0E1 	 mov r1, ra
 3799 2500 0540A0E1 	 mov ra, rb
 3800 2504 0150A0E1 	 mov rb, r1
 3801              	@ KPG     P19 G208
 3802 2508 40139BE5 	 ldr r1, [rg, #+832] @ 00000340
 3803 250c 4C208AE2 	 add r2, rp, #76 @ 0000004C
 3804 2510 0FE0A0E1 	 mov lr, pc
 3805 2514 01F0A0E1 	 mov pc, r1
 3806              	@ L       K0
 3807 2518 0040A0E3 	 mov ra, #0 @ 00000000
 3808              	@ SG      G200
 3809 251c 20438BE5 	 str ra, [rg, #+800] @ 00000320
 3810              	@ JNE0    L66
 3811 2520 000054E3 	 cmp ra, #0
 3812 2524 4A09001A 	 bne LA66
 3813              	@ L       K1
 3814 2528 0140A0E3 	 mov ra, #1 @ 00000001
 3815              	@ J       L65
 3816 252c 4B0900EA 	 b LA65
 3817              	 .ltorg
 3818              	
 3819              	@ LAB     L66
 3820              	LA66:
 3821              	@ L       K2
 3822 2530 0240A0E3 	 mov ra, #2 @ 00000002
 3823              	@ LAB     L65
 3824              	LA65:
 3825              	@ ATB
 3826 2534 0450A0E1 	 mov rb, ra
 3827              	@ L       K1
 3828 2538 0140A0E3 	 mov ra, #1 @ 00000001
 3829              	@ SP      P23
 3830 253c 5C408AE5 	 str ra, [rp, #+92] @ 0000005C
 3831              	@ XCH
 3832 2540 0410A0E1 	 mov r1, ra
 3833 2544 0540A0E1 	 mov ra, rb
 3834 2548 0150A0E1 	 mov rb, r1
ARM GAS  temps/cmpltest.s 			page 69


 3835              	@ KPG     P19 G208
 3836 254c 40139BE5 	 ldr r1, [rg, #+832] @ 00000340
 3837 2550 4C208AE2 	 add r2, rp, #76 @ 0000004C
 3838 2554 0FE0A0E1 	 mov lr, pc
 3839 2558 01F0A0E1 	 mov pc, r1
 3840              	@ LG      G200
 3841 255c 20439BE5 	 ldr ra, [rg, #+800] @ 00000320
 3842              	@ JEQ0    L68
 3843 2560 000054E3 	 cmp ra, #0
 3844 2564 5A09000A 	 beq LA68
 3845              	@ L       K1
 3846 2568 0140A0E3 	 mov ra, #1 @ 00000001
 3847              	@ J       L67
 3848 256c 5B0900EA 	 b LA67
 3849              	 .ltorg
 3850              	
 3851              	@ LAB     L68
 3852              	LA68:
 3853              	@ L       K2
 3854 2570 0240A0E3 	 mov ra, #2 @ 00000002
 3855              	@ LAB     L67
 3856              	LA67:
 3857              	@ ATB
 3858 2574 0450A0E1 	 mov rb, ra
 3859              	@ L       K2
 3860 2578 0240A0E3 	 mov ra, #2 @ 00000002
 3861              	@ SP      P23
 3862 257c 5C408AE5 	 str ra, [rp, #+92] @ 0000005C
 3863              	@ XCH
 3864 2580 0410A0E1 	 mov r1, ra
 3865 2584 0540A0E1 	 mov ra, rb
 3866 2588 0150A0E1 	 mov rb, r1
 3867              	@ KPG     P19 G208
 3868 258c 40139BE5 	 ldr r1, [rg, #+832] @ 00000340
 3869 2590 4C208AE2 	 add r2, rp, #76 @ 0000004C
 3870 2594 0FE0A0E1 	 mov lr, pc
 3871 2598 01F0A0E1 	 mov pc, r1
 3872              	@ LG      G200
 3873 259c 20439BE5 	 ldr ra, [rg, #+800] @ 00000320
 3874              	@ JGE0    L70
 3875 25a0 000054E3 	 cmp ra, #0
 3876 25a4 6A0900AA 	 bge LA70
 3877              	@ L       K1
 3878 25a8 0140A0E3 	 mov ra, #1 @ 00000001
 3879              	@ J       L69
 3880 25ac 6B0900EA 	 b LA69
 3881              	 .ltorg
 3882              	
 3883              	@ LAB     L70
 3884              	LA70:
 3885              	@ L       K2
 3886 25b0 0240A0E3 	 mov ra, #2 @ 00000002
 3887              	@ LAB     L69
 3888              	LA69:
 3889              	@ ATB
 3890 25b4 0450A0E1 	 mov rb, ra
 3891              	@ L       K2
ARM GAS  temps/cmpltest.s 			page 70


 3892 25b8 0240A0E3 	 mov ra, #2 @ 00000002
 3893              	@ SP      P23
 3894 25bc 5C408AE5 	 str ra, [rp, #+92] @ 0000005C
 3895              	@ XCH
 3896 25c0 0410A0E1 	 mov r1, ra
 3897 25c4 0540A0E1 	 mov ra, rb
 3898 25c8 0150A0E1 	 mov rb, r1
 3899              	@ KPG     P19 G208
 3900 25cc 40139BE5 	 ldr r1, [rg, #+832] @ 00000340
 3901 25d0 4C208AE2 	 add r2, rp, #76 @ 0000004C
 3902 25d4 0FE0A0E1 	 mov lr, pc
 3903 25d8 01F0A0E1 	 mov pc, r1
 3904              	@ LG      G200
 3905 25dc 20439BE5 	 ldr ra, [rg, #+800] @ 00000320
 3906              	@ JLS0    L72
 3907 25e0 000054E3 	 cmp ra, #0
 3908 25e4 7A0900BA 	 blt LA72
 3909              	@ L       K1
 3910 25e8 0140A0E3 	 mov ra, #1 @ 00000001
 3911              	@ J       L71
 3912 25ec 7B0900EA 	 b LA71
 3913              	 .ltorg
 3914              	
 3915              	@ LAB     L72
 3916              	LA72:
 3917              	@ L       K2
 3918 25f0 0240A0E3 	 mov ra, #2 @ 00000002
 3919              	@ LAB     L71
 3920              	LA71:
 3921              	@ ATB
 3922 25f4 0450A0E1 	 mov rb, ra
 3923              	@ L       K1
 3924 25f8 0140A0E3 	 mov ra, #1 @ 00000001
 3925              	@ SP      P23
 3926 25fc 5C408AE5 	 str ra, [rp, #+92] @ 0000005C
 3927              	@ XCH
 3928 2600 0410A0E1 	 mov r1, ra
 3929 2604 0540A0E1 	 mov ra, rb
 3930 2608 0150A0E1 	 mov rb, r1
 3931              	@ KPG     P19 G208
 3932 260c 40139BE5 	 ldr r1, [rg, #+832] @ 00000340
 3933 2610 4C208AE2 	 add r2, rp, #76 @ 0000004C
 3934 2614 0FE0A0E1 	 mov lr, pc
 3935 2618 01F0A0E1 	 mov pc, r1
 3936              	@ LG      G200
 3937 261c 20439BE5 	 ldr ra, [rg, #+800] @ 00000320
 3938              	@ JLE0    L74
 3939 2620 000054E3 	 cmp ra, #0
 3940 2624 8A0900DA 	 ble LA74
 3941              	@ L       K1
 3942 2628 0140A0E3 	 mov ra, #1 @ 00000001
 3943              	@ J       L73
 3944 262c 8B0900EA 	 b LA73
 3945              	 .ltorg
 3946              	
 3947              	@ LAB     L74
 3948              	LA74:
ARM GAS  temps/cmpltest.s 			page 71


 3949              	@ L       K2
 3950 2630 0240A0E3 	 mov ra, #2 @ 00000002
 3951              	@ LAB     L73
 3952              	LA73:
 3953              	@ ATB
 3954 2634 0450A0E1 	 mov rb, ra
 3955              	@ L       K2
 3956 2638 0240A0E3 	 mov ra, #2 @ 00000002
 3957              	@ SP      P23
 3958 263c 5C408AE5 	 str ra, [rp, #+92] @ 0000005C
 3959              	@ XCH
 3960 2640 0410A0E1 	 mov r1, ra
 3961 2644 0540A0E1 	 mov ra, rb
 3962 2648 0150A0E1 	 mov rb, r1
 3963              	@ KPG     P19 G208
 3964 264c 40139BE5 	 ldr r1, [rg, #+832] @ 00000340
 3965 2650 4C208AE2 	 add r2, rp, #76 @ 0000004C
 3966 2654 0FE0A0E1 	 mov lr, pc
 3967 2658 01F0A0E1 	 mov pc, r1
 3968              	@ LG      G200
 3969 265c 20439BE5 	 ldr ra, [rg, #+800] @ 00000320
 3970              	@ JGR0    L76
 3971 2660 000054E3 	 cmp ra, #0
 3972 2664 9A0900CA 	 bgt LA76
 3973              	@ L       K1
 3974 2668 0140A0E3 	 mov ra, #1 @ 00000001
 3975              	@ J       L75
 3976 266c 9B0900EA 	 b LA75
 3977              	 .ltorg
 3978              	
 3979              	@ LAB     L76
 3980              	LA76:
 3981              	@ L       K2
 3982 2670 0240A0E3 	 mov ra, #2 @ 00000002
 3983              	@ LAB     L75
 3984              	LA75:
 3985              	@ ATB
 3986 2674 0450A0E1 	 mov rb, ra
 3987              	@ L       K1
 3988 2678 0140A0E3 	 mov ra, #1 @ 00000001
 3989              	@ SP      P23
 3990 267c 5C408AE5 	 str ra, [rp, #+92] @ 0000005C
 3991              	@ XCH
 3992 2680 0410A0E1 	 mov r1, ra
 3993 2684 0540A0E1 	 mov ra, rb
 3994 2688 0150A0E1 	 mov rb, r1
 3995              	@ KPG     P19 G208
 3996 268c 40139BE5 	 ldr r1, [rg, #+832] @ 00000340
 3997 2690 4C208AE2 	 add r2, rp, #76 @ 0000004C
 3998 2694 0FE0A0E1 	 mov lr, pc
 3999 2698 01F0A0E1 	 mov pc, r1
 4000              	@ L       K1
 4001 269c 0140A0E3 	 mov ra, #1 @ 00000001
 4002              	@ SG      G200
 4003 26a0 20438BE5 	 str ra, [rg, #+800] @ 00000320
 4004              	@ JNE0    L78
 4005 26a4 000054E3 	 cmp ra, #0
ARM GAS  temps/cmpltest.s 			page 72


 4006 26a8 AA09001A 	 bne LA78
 4007              	@ J       L77
 4008 26ac AB0900EA 	 b LA77
 4009              	 .ltorg
 4010              	
 4011              	@ LAB     L78
 4012              	LA78:
 4013              	@ L       K2
 4014 26b0 0240A0E3 	 mov ra, #2 @ 00000002
 4015              	@ LAB     L77
 4016              	LA77:
 4017              	@ ATB
 4018 26b4 0450A0E1 	 mov rb, ra
 4019              	@ L       K2
 4020 26b8 0240A0E3 	 mov ra, #2 @ 00000002
 4021              	@ SP      P23
 4022 26bc 5C408AE5 	 str ra, [rp, #+92] @ 0000005C
 4023              	@ XCH
 4024 26c0 0410A0E1 	 mov r1, ra
 4025 26c4 0540A0E1 	 mov ra, rb
 4026 26c8 0150A0E1 	 mov rb, r1
 4027              	@ KPG     P19 G208
 4028 26cc 40139BE5 	 ldr r1, [rg, #+832] @ 00000340
 4029 26d0 4C208AE2 	 add r2, rp, #76 @ 0000004C
 4030 26d4 0FE0A0E1 	 mov lr, pc
 4031 26d8 01F0A0E1 	 mov pc, r1
 4032              	@ LG      G200
 4033 26dc 20439BE5 	 ldr ra, [rg, #+800] @ 00000320
 4034              	@ JEQ0    L80
 4035 26e0 000054E3 	 cmp ra, #0
 4036 26e4 BA09000A 	 beq LA80
 4037              	@ L       K1
 4038 26e8 0140A0E3 	 mov ra, #1 @ 00000001
 4039              	@ J       L79
 4040 26ec BB0900EA 	 b LA79
 4041              	 .ltorg
 4042              	
 4043              	@ LAB     L80
 4044              	LA80:
 4045              	@ L       K2
 4046 26f0 0240A0E3 	 mov ra, #2 @ 00000002
 4047              	@ LAB     L79
 4048              	LA79:
 4049              	@ ATB
 4050 26f4 0450A0E1 	 mov rb, ra
 4051              	@ L       K1
 4052 26f8 0140A0E3 	 mov ra, #1 @ 00000001
 4053              	@ SP      P23
 4054 26fc 5C408AE5 	 str ra, [rp, #+92] @ 0000005C
 4055              	@ XCH
 4056 2700 0410A0E1 	 mov r1, ra
 4057 2704 0540A0E1 	 mov ra, rb
 4058 2708 0150A0E1 	 mov rb, r1
 4059              	@ KPG     P19 G208
 4060 270c 40139BE5 	 ldr r1, [rg, #+832] @ 00000340
 4061 2710 4C208AE2 	 add r2, rp, #76 @ 0000004C
 4062 2714 0FE0A0E1 	 mov lr, pc
ARM GAS  temps/cmpltest.s 			page 73


 4063 2718 01F0A0E1 	 mov pc, r1
 4064              	@ LG      G200
 4065 271c 20439BE5 	 ldr ra, [rg, #+800] @ 00000320
 4066              	@ JGE0    L82
 4067 2720 000054E3 	 cmp ra, #0
 4068 2724 CA0900AA 	 bge LA82
 4069              	@ L       K1
 4070 2728 0140A0E3 	 mov ra, #1 @ 00000001
 4071              	@ J       L81
 4072 272c CB0900EA 	 b LA81
 4073              	 .ltorg
 4074              	
 4075              	@ LAB     L82
 4076              	LA82:
 4077              	@ L       K2
 4078 2730 0240A0E3 	 mov ra, #2 @ 00000002
 4079              	@ LAB     L81
 4080              	LA81:
 4081              	@ ATB
 4082 2734 0450A0E1 	 mov rb, ra
 4083              	@ L       K2
 4084 2738 0240A0E3 	 mov ra, #2 @ 00000002
 4085              	@ SP      P23
 4086 273c 5C408AE5 	 str ra, [rp, #+92] @ 0000005C
 4087              	@ XCH
 4088 2740 0410A0E1 	 mov r1, ra
 4089 2744 0540A0E1 	 mov ra, rb
 4090 2748 0150A0E1 	 mov rb, r1
 4091              	@ KPG     P19 G208
 4092 274c 40139BE5 	 ldr r1, [rg, #+832] @ 00000340
 4093 2750 4C208AE2 	 add r2, rp, #76 @ 0000004C
 4094 2754 0FE0A0E1 	 mov lr, pc
 4095 2758 01F0A0E1 	 mov pc, r1
 4096              	@ LG      G200
 4097 275c 20439BE5 	 ldr ra, [rg, #+800] @ 00000320
 4098              	@ JLS0    L84
 4099 2760 000054E3 	 cmp ra, #0
 4100 2764 DA0900BA 	 blt LA84
 4101              	@ L       K1
 4102 2768 0140A0E3 	 mov ra, #1 @ 00000001
 4103              	@ J       L83
 4104 276c DB0900EA 	 b LA83
 4105              	 .ltorg
 4106              	
 4107              	@ LAB     L84
 4108              	LA84:
 4109              	@ L       K2
 4110 2770 0240A0E3 	 mov ra, #2 @ 00000002
 4111              	@ LAB     L83
 4112              	LA83:
 4113              	@ ATB
 4114 2774 0450A0E1 	 mov rb, ra
 4115              	@ L       K1
 4116 2778 0140A0E3 	 mov ra, #1 @ 00000001
 4117              	@ SP      P23
 4118 277c 5C408AE5 	 str ra, [rp, #+92] @ 0000005C
 4119              	@ XCH
ARM GAS  temps/cmpltest.s 			page 74


 4120 2780 0410A0E1 	 mov r1, ra
 4121 2784 0540A0E1 	 mov ra, rb
 4122 2788 0150A0E1 	 mov rb, r1
 4123              	@ KPG     P19 G208
 4124 278c 40139BE5 	 ldr r1, [rg, #+832] @ 00000340
 4125 2790 4C208AE2 	 add r2, rp, #76 @ 0000004C
 4126 2794 0FE0A0E1 	 mov lr, pc
 4127 2798 01F0A0E1 	 mov pc, r1
 4128              	@ LG      G200
 4129 279c 20439BE5 	 ldr ra, [rg, #+800] @ 00000320
 4130              	@ JLE0    L86
 4131 27a0 000054E3 	 cmp ra, #0
 4132 27a4 EA0900DA 	 ble LA86
 4133              	@ L       K1
 4134 27a8 0140A0E3 	 mov ra, #1 @ 00000001
 4135              	@ J       L85
 4136 27ac EB0900EA 	 b LA85
 4137              	 .ltorg
 4138              	
 4139              	@ LAB     L86
 4140              	LA86:
 4141              	@ L       K2
 4142 27b0 0240A0E3 	 mov ra, #2 @ 00000002
 4143              	@ LAB     L85
 4144              	LA85:
 4145              	@ ATB
 4146 27b4 0450A0E1 	 mov rb, ra
 4147              	@ L       K1
 4148 27b8 0140A0E3 	 mov ra, #1 @ 00000001
 4149              	@ SP      P23
 4150 27bc 5C408AE5 	 str ra, [rp, #+92] @ 0000005C
 4151              	@ XCH
 4152 27c0 0410A0E1 	 mov r1, ra
 4153 27c4 0540A0E1 	 mov ra, rb
 4154 27c8 0150A0E1 	 mov rb, r1
 4155              	@ KPG     P19 G208
 4156 27cc 40139BE5 	 ldr r1, [rg, #+832] @ 00000340
 4157 27d0 4C208AE2 	 add r2, rp, #76 @ 0000004C
 4158 27d4 0FE0A0E1 	 mov lr, pc
 4159 27d8 01F0A0E1 	 mov pc, r1
 4160              	@ LG      G200
 4161 27dc 20439BE5 	 ldr ra, [rg, #+800] @ 00000320
 4162              	@ JGR0    L88
 4163 27e0 000054E3 	 cmp ra, #0
 4164 27e4 FA0900CA 	 bgt LA88
 4165              	@ L       K1
 4166 27e8 0140A0E3 	 mov ra, #1 @ 00000001
 4167              	@ J       L87
 4168 27ec FB0900EA 	 b LA87
 4169              	 .ltorg
 4170              	
 4171              	@ LAB     L88
 4172              	LA88:
 4173              	@ L       K2
 4174 27f0 0240A0E3 	 mov ra, #2 @ 00000002
 4175              	@ LAB     L87
 4176              	LA87:
ARM GAS  temps/cmpltest.s 			page 75


 4177              	@ ATB
 4178 27f4 0450A0E1 	 mov rb, ra
 4179              	@ L       K2
 4180 27f8 0240A0E3 	 mov ra, #2 @ 00000002
 4181              	@ SP      P23
 4182 27fc 5C408AE5 	 str ra, [rp, #+92] @ 0000005C
 4183              	@ XCH
 4184 2800 0410A0E1 	 mov r1, ra
 4185 2804 0540A0E1 	 mov ra, rb
 4186 2808 0150A0E1 	 mov rb, r1
 4187              	@ KPG     P19 G208
 4188 280c 40139BE5 	 ldr r1, [rg, #+832] @ 00000340
 4189 2810 4C208AE2 	 add r2, rp, #76 @ 0000004C
 4190 2814 0FE0A0E1 	 mov lr, pc
 4191 2818 01F0A0E1 	 mov pc, r1
 4192              	@ L       K200
 4193 281c C840A0E3 	 mov ra, #200 @ 000000C8
 4194              	@ SG      G203
 4195 2820 2C438BE5 	 str ra, [rg, #+812] @ 0000032C
 4196              	@ L       K0
 4197 2824 0040A0E3 	 mov ra, #0 @ 00000000
 4198              	@ SP      P19
 4199 2828 4C408AE5 	 str ra, [rp, #+76] @ 0000004C
 4200              	@ SP      P20
 4201 282c 50408AE5 	 str ra, [rp, #+80] @ 00000050
 4202              	@ SP      P21
 4203 2830 54408AE5 	 str ra, [rp, #+84] @ 00000054
 4204              	@ SP      P22
 4205 2834 58408AE5 	 str ra, [rp, #+88] @ 00000058
 4206              	@ SP      P23
 4207 2838 5C408AE5 	 str ra, [rp, #+92] @ 0000005C
 4208              	@ SP      P24
 4209 283c 60408AE5 	 str ra, [rp, #+96] @ 00000060
 4210              	@ LM      K200
 4211 2840 C740E0E3 	 mvn ra, #199 @ 000000C7
 4212              	@ SP      P25
 4213 2844 64408AE5 	 str ra, [rp, #+100] @ 00000064
 4214              	@ LAB     L89
 4215              	LA89:
 4216              	@ L       K7
 4217 2848 0740A0E3 	 mov ra, #7 @ 00000007
 4218              	@ SP      P26
 4219 284c 68408AE5 	 str ra, [rp, #+104] @ 00000068
 4220              	@ J       L90
 4221 2850 7D0A00EA 	 b LA90
 4222              	 .ltorg
 4223              	
 4224              	@ LAB     L92
 4225              	LA92:
 4226              	@ IKP     K1000 P19
 4227 2854 4C409AE5 	 ldr ra, [rp, #+76] @ 0000004C
 4228 2858 FA4F84E2 	 add ra, ra, #1000 @ 000003E8
 4229 285c 4C408AE5 	 str ra, [rp, #+76] @ 0000004C
 4230              	@ J       L91
 4231 2860 F40A00EA 	 b LA91
 4232              	 .ltorg
 4233              	
ARM GAS  temps/cmpltest.s 			page 76


 4234              	@ LAB     L93
 4235              	LA93:
 4236              	@ LP      P25
 4237 2864 64409AE5 	 ldr ra, [rp, #+100] @ 00000064
 4238              	@ IP      P20
 4239 2868 50109AE5 	 ldr r1, [rp, #+80] @ 00000050
 4240 286c 044081E0 	 add ra, r1, ra
 4241 2870 50408AE5 	 str ra, [rp, #+80] @ 00000050
 4242              	@ J       L91
 4243 2874 F40A00EA 	 b LA91
 4244              	 .ltorg
 4245              	
 4246              	@ LAB     L94
 4247              	LA94:
 4248              	@ IKP     K1 P19
 4249 2878 4C409AE5 	 ldr ra, [rp, #+76] @ 0000004C
 4250 287c 014084E2 	 add ra, ra, #1 @ 00000001
 4251 2880 4C408AE5 	 str ra, [rp, #+76] @ 0000004C
 4252              	@ LAB     L95
 4253              	LA95:
 4254              	@ IKP     K1 P19
 4255 2884 4C409AE5 	 ldr ra, [rp, #+76] @ 0000004C
 4256 2888 014084E2 	 add ra, ra, #1 @ 00000001
 4257 288c 4C408AE5 	 str ra, [rp, #+76] @ 0000004C
 4258              	@ LAB     L96
 4259              	LA96:
 4260              	@ IKP     K1 P19
 4261 2890 4C409AE5 	 ldr ra, [rp, #+76] @ 0000004C
 4262 2894 014084E2 	 add ra, ra, #1 @ 00000001
 4263 2898 4C408AE5 	 str ra, [rp, #+76] @ 0000004C
 4264              	@ LAB     L97
 4265              	LA97:
 4266              	@ IKP     K1 P19
 4267 289c 4C409AE5 	 ldr ra, [rp, #+76] @ 0000004C
 4268 28a0 014084E2 	 add ra, ra, #1 @ 00000001
 4269 28a4 4C408AE5 	 str ra, [rp, #+76] @ 0000004C
 4270              	@ LAB     L98
 4271              	LA98:
 4272              	@ IKP     K1 P19
 4273 28a8 4C409AE5 	 ldr ra, [rp, #+76] @ 0000004C
 4274 28ac 014084E2 	 add ra, ra, #1 @ 00000001
 4275 28b0 4C408AE5 	 str ra, [rp, #+76] @ 0000004C
 4276              	@ LAB     L99
 4277              	LA99:
 4278              	@ IKP     K1 P19
 4279 28b4 4C409AE5 	 ldr ra, [rp, #+76] @ 0000004C
 4280 28b8 014084E2 	 add ra, ra, #1 @ 00000001
 4281 28bc 4C408AE5 	 str ra, [rp, #+76] @ 0000004C
 4282              	@ LAB     L100
 4283              	LA100:
 4284              	@ IKP     K1 P19
 4285 28c0 4C409AE5 	 ldr ra, [rp, #+76] @ 0000004C
 4286 28c4 014084E2 	 add ra, ra, #1 @ 00000001
 4287 28c8 4C408AE5 	 str ra, [rp, #+76] @ 0000004C
 4288              	@ LAB     L101
 4289              	LA101:
 4290              	@ IKP     K1 P19
ARM GAS  temps/cmpltest.s 			page 77


 4291 28cc 4C409AE5 	 ldr ra, [rp, #+76] @ 0000004C
 4292 28d0 014084E2 	 add ra, ra, #1 @ 00000001
 4293 28d4 4C408AE5 	 str ra, [rp, #+76] @ 0000004C
 4294              	@ LAB     L102
 4295              	LA102:
 4296              	@ IKP     K1 P19
 4297 28d8 4C409AE5 	 ldr ra, [rp, #+76] @ 0000004C
 4298 28dc 014084E2 	 add ra, ra, #1 @ 00000001
 4299 28e0 4C408AE5 	 str ra, [rp, #+76] @ 0000004C
 4300              	@ LAB     L103
 4301              	LA103:
 4302              	@ IKP     K1 P19
 4303 28e4 4C409AE5 	 ldr ra, [rp, #+76] @ 0000004C
 4304 28e8 014084E2 	 add ra, ra, #1 @ 00000001
 4305 28ec 4C408AE5 	 str ra, [rp, #+76] @ 0000004C
 4306              	@ LAB     L104
 4307              	LA104:
 4308              	@ IKP     K1 P19
 4309 28f0 4C409AE5 	 ldr ra, [rp, #+76] @ 0000004C
 4310 28f4 014084E2 	 add ra, ra, #1 @ 00000001
 4311 28f8 4C408AE5 	 str ra, [rp, #+76] @ 0000004C
 4312              	@ LAB     L105
 4313              	LA105:
 4314              	@ IKP     K1 P19
 4315 28fc 4C409AE5 	 ldr ra, [rp, #+76] @ 0000004C
 4316 2900 014084E2 	 add ra, ra, #1 @ 00000001
 4317 2904 4C408AE5 	 str ra, [rp, #+76] @ 0000004C
 4318              	@ LAB     L106
 4319              	LA106:
 4320              	@ IKP     K1 P19
 4321 2908 4C409AE5 	 ldr ra, [rp, #+76] @ 0000004C
 4322 290c 014084E2 	 add ra, ra, #1 @ 00000001
 4323 2910 4C408AE5 	 str ra, [rp, #+76] @ 0000004C
 4324              	@ LAB     L107
 4325              	LA107:
 4326              	@ IKP     K1 P19
 4327 2914 4C409AE5 	 ldr ra, [rp, #+76] @ 0000004C
 4328 2918 014084E2 	 add ra, ra, #1 @ 00000001
 4329 291c 4C408AE5 	 str ra, [rp, #+76] @ 0000004C
 4330              	@ LAB     L108
 4331              	LA108:
 4332              	@ IKP     K1 P19
 4333 2920 4C409AE5 	 ldr ra, [rp, #+76] @ 0000004C
 4334 2924 014084E2 	 add ra, ra, #1 @ 00000001
 4335 2928 4C408AE5 	 str ra, [rp, #+76] @ 0000004C
 4336              	@ LAB     L109
 4337              	LA109:
 4338              	@ IKP     K1 P19
 4339 292c 4C409AE5 	 ldr ra, [rp, #+76] @ 0000004C
 4340 2930 014084E2 	 add ra, ra, #1 @ 00000001
 4341 2934 4C408AE5 	 str ra, [rp, #+76] @ 0000004C
 4342              	@ LAB     L110
 4343              	LA110:
 4344              	@ IKP     K1 P19
 4345 2938 4C409AE5 	 ldr ra, [rp, #+76] @ 0000004C
 4346 293c 014084E2 	 add ra, ra, #1 @ 00000001
 4347 2940 4C408AE5 	 str ra, [rp, #+76] @ 0000004C
ARM GAS  temps/cmpltest.s 			page 78


 4348              	@ LAB     L111
 4349              	LA111:
 4350              	@ IKP     K1 P19
 4351 2944 4C409AE5 	 ldr ra, [rp, #+76] @ 0000004C
 4352 2948 014084E2 	 add ra, ra, #1 @ 00000001
 4353 294c 4C408AE5 	 str ra, [rp, #+76] @ 0000004C
 4354              	@ LAB     L112
 4355              	LA112:
 4356              	@ IKP     K1 P19
 4357 2950 4C409AE5 	 ldr ra, [rp, #+76] @ 0000004C
 4358 2954 014084E2 	 add ra, ra, #1 @ 00000001
 4359 2958 4C408AE5 	 str ra, [rp, #+76] @ 0000004C
 4360              	@ LAB     L113
 4361              	LA113:
 4362              	@ IKP     K1 P19
 4363 295c 4C409AE5 	 ldr ra, [rp, #+76] @ 0000004C
 4364 2960 014084E2 	 add ra, ra, #1 @ 00000001
 4365 2964 4C408AE5 	 str ra, [rp, #+76] @ 0000004C
 4366              	@ LAB     L114
 4367              	LA114:
 4368              	@ IKP     K1 P19
 4369 2968 4C409AE5 	 ldr ra, [rp, #+76] @ 0000004C
 4370 296c 014084E2 	 add ra, ra, #1 @ 00000001
 4371 2970 4C408AE5 	 str ra, [rp, #+76] @ 0000004C
 4372              	@ LAB     L115
 4373              	LA115:
 4374              	@ IKP     K1 P19
 4375 2974 4C409AE5 	 ldr ra, [rp, #+76] @ 0000004C
 4376 2978 014084E2 	 add ra, ra, #1 @ 00000001
 4377 297c 4C408AE5 	 str ra, [rp, #+76] @ 0000004C
 4378              	@ LAB     L116
 4379              	LA116:
 4380              	@ IKP     K1 P19
 4381 2980 4C409AE5 	 ldr ra, [rp, #+76] @ 0000004C
 4382 2984 014084E2 	 add ra, ra, #1 @ 00000001
 4383 2988 4C408AE5 	 str ra, [rp, #+76] @ 0000004C
 4384              	@ LAB     L117
 4385              	LA117:
 4386              	@ IKP     K1 P19
 4387 298c 4C409AE5 	 ldr ra, [rp, #+76] @ 0000004C
 4388 2990 014084E2 	 add ra, ra, #1 @ 00000001
 4389 2994 4C408AE5 	 str ra, [rp, #+76] @ 0000004C
 4390              	@ LAB     L118
 4391              	LA118:
 4392              	@ IKP     K1 P19
 4393 2998 4C409AE5 	 ldr ra, [rp, #+76] @ 0000004C
 4394 299c 014084E2 	 add ra, ra, #1 @ 00000001
 4395 29a0 4C408AE5 	 str ra, [rp, #+76] @ 0000004C
 4396              	@ LAB     L119
 4397              	LA119:
 4398              	@ IKP     K1 P19
 4399 29a4 4C409AE5 	 ldr ra, [rp, #+76] @ 0000004C
 4400 29a8 014084E2 	 add ra, ra, #1 @ 00000001
 4401 29ac 4C408AE5 	 str ra, [rp, #+76] @ 0000004C
 4402              	@ LAB     L120
 4403              	LA120:
 4404              	@ IKP     K1 P19
ARM GAS  temps/cmpltest.s 			page 79


 4405 29b0 4C409AE5 	 ldr ra, [rp, #+76] @ 0000004C
 4406 29b4 014084E2 	 add ra, ra, #1 @ 00000001
 4407 29b8 4C408AE5 	 str ra, [rp, #+76] @ 0000004C
 4408              	@ LAB     L121
 4409              	LA121:
 4410              	@ IKP     K1 P19
 4411 29bc 4C409AE5 	 ldr ra, [rp, #+76] @ 0000004C
 4412 29c0 014084E2 	 add ra, ra, #1 @ 00000001
 4413 29c4 4C408AE5 	 str ra, [rp, #+76] @ 0000004C
 4414              	@ LAB     L122
 4415              	LA122:
 4416              	@ IKP     K1 P19
 4417 29c8 4C409AE5 	 ldr ra, [rp, #+76] @ 0000004C
 4418 29cc 014084E2 	 add ra, ra, #1 @ 00000001
 4419 29d0 4C408AE5 	 str ra, [rp, #+76] @ 0000004C
 4420              	@ LAB     L123
 4421              	LA123:
 4422              	@ IKP     K1 P19
 4423 29d4 4C409AE5 	 ldr ra, [rp, #+76] @ 0000004C
 4424 29d8 014084E2 	 add ra, ra, #1 @ 00000001
 4425 29dc 4C408AE5 	 str ra, [rp, #+76] @ 0000004C
 4426              	@ LAB     L124
 4427              	LA124:
 4428              	@ IKP     K1 P19
 4429 29e0 4C409AE5 	 ldr ra, [rp, #+76] @ 0000004C
 4430 29e4 014084E2 	 add ra, ra, #1 @ 00000001
 4431 29e8 4C408AE5 	 str ra, [rp, #+76] @ 0000004C
 4432              	@ LAB     L125
 4433              	LA125:
 4434              	@ IKP     K1 P19
 4435 29ec 4C409AE5 	 ldr ra, [rp, #+76] @ 0000004C
 4436 29f0 014084E2 	 add ra, ra, #1 @ 00000001
 4437 29f4 4C408AE5 	 str ra, [rp, #+76] @ 0000004C
 4438              	@ J       L91
 4439 29f8 F40A00EA 	 b LA91
 4440              	 .ltorg
 4441              	
 4442              	@ LAB     L90
 4443              	LA90:
 4444              	@ LP      P25
 4445 29fc 64409AE5 	 ldr ra, [rp, #+100] @ 00000064
 4446              	@ A       K1000
 4447 2a00 FA4F84E2 	 add ra, ra, #1000 @ 000003E8
 4448              	@ SWB K33 L92
 4449              	@ K1041 L115
 4450 2a04 1110A0E3 	 mov r1, #17 @ 00000011
 4451 2a08 011B81E3 	 orr r1, r1, #1024 @ 00000400
 4452 2a0c 010054E1 	 cmp ra, r1
 4453 2a10 5B0A000A 	 beq LA115
 4454              	@ K1088 L109
 4455 2a14 110D54E3 	 cmp ra, #1088 @ 00000440
 4456 2a18 490A000A 	 beq LA109
 4457              	@ K902 L111
 4458 2a1c 8610A0E3 	 mov r1, #134 @ 00000086
 4459 2a20 031C81E3 	 orr r1, r1, #768 @ 00000300
 4460 2a24 010054E1 	 cmp ra, r1
 4461 2a28 4F0A000A 	 beq LA111
ARM GAS  temps/cmpltest.s 			page 80


 4462              	@ K1095 L107
 4463 2a2c 4710A0E3 	 mov r1, #71 @ 00000047
 4464 2a30 011B81E3 	 orr r1, r1, #1024 @ 00000400
 4465 2a34 010054E1 	 cmp ra, r1
 4466 2a38 430A000A 	 beq LA107
 4467              	@ K1074 L120
 4468 2a3c 3210A0E3 	 mov r1, #50 @ 00000032
 4469 2a40 011B81E3 	 orr r1, r1, #1024 @ 00000400
 4470 2a44 010054E1 	 cmp ra, r1
 4471 2a48 6A0A000A 	 beq LA120
 4472              	@ K1008 L101
 4473 2a4c 3F0E54E3 	 cmp ra, #1008 @ 000003F0
 4474 2a50 310A000A 	 beq LA101
 4475              	@ K820 L96
 4476 2a54 CD0F54E3 	 cmp ra, #820 @ 00000334
 4477 2a58 220A000A 	 beq LA96
 4478              	@ K1100 L104
 4479 2a5c 4C10A0E3 	 mov r1, #76 @ 0000004C
 4480 2a60 011B81E3 	 orr r1, r1, #1024 @ 00000400
 4481 2a64 010054E1 	 cmp ra, r1
 4482 2a68 3A0A000A 	 beq LA104
 4483              	@ K1091 L116
 4484 2a6c 4310A0E3 	 mov r1, #67 @ 00000043
 4485 2a70 011B81E3 	 orr r1, r1, #1024 @ 00000400
 4486 2a74 010054E1 	 cmp ra, r1
 4487 2a78 5E0A000A 	 beq LA116
 4488              	@ K1081 L121
 4489 2a7c 3910A0E3 	 mov r1, #57 @ 00000039
 4490 2a80 011B81E3 	 orr r1, r1, #1024 @ 00000400
 4491 2a84 010054E1 	 cmp ra, r1
 4492 2a88 6D0A000A 	 beq LA121
 4493              	@ K1071 L118
 4494 2a8c 2F10A0E3 	 mov r1, #47 @ 0000002F
 4495 2a90 011B81E3 	 orr r1, r1, #1024 @ 00000400
 4496 2a94 010054E1 	 cmp ra, r1
 4497 2a98 640A000A 	 beq LA118
 4498              	@ K1012 L113
 4499 2a9c FD0F54E3 	 cmp ra, #1012 @ 000003F4
 4500 2aa0 550A000A 	 beq LA113
 4501              	@ K1000 L98
 4502 2aa4 FA0F54E3 	 cmp ra, #1000 @ 000003E8
 4503 2aa8 280A000A 	 beq LA98
 4504              	@ K838 L125
 4505 2aac 4610A0E3 	 mov r1, #70 @ 00000046
 4506 2ab0 031C81E3 	 orr r1, r1, #768 @ 00000300
 4507 2ab4 010054E1 	 cmp ra, r1
 4508 2ab8 790A000A 	 beq LA125
 4509              	@ K800 L94
 4510 2abc 320E54E3 	 cmp ra, #800 @ 00000320
 4511 2ac0 1C0A000A 	 beq LA94
 4512              	@ K1199 L106
 4513 2ac4 AF10A0E3 	 mov r1, #175 @ 000000AF
 4514 2ac8 011B81E3 	 orr r1, r1, #1024 @ 00000400
 4515 2acc 010054E1 	 cmp ra, r1
 4516 2ad0 400A000A 	 beq LA106
 4517              	@ K1099 L110
 4518 2ad4 4B10A0E3 	 mov r1, #75 @ 0000004B
ARM GAS  temps/cmpltest.s 			page 81


 4519 2ad8 011B81E3 	 orr r1, r1, #1024 @ 00000400
 4520 2adc 010054E1 	 cmp ra, r1
 4521 2ae0 4C0A000A 	 beq LA110
 4522              	@ K1092 L117
 4523 2ae4 4410A0E3 	 mov r1, #68 @ 00000044
 4524 2ae8 011B81E3 	 orr r1, r1, #1024 @ 00000400
 4525 2aec 010054E1 	 cmp ra, r1
 4526 2af0 610A000A 	 beq LA117
 4527              	@ K1090 L105
 4528 2af4 4210A0E3 	 mov r1, #66 @ 00000042
 4529 2af8 011B81E3 	 orr r1, r1, #1024 @ 00000400
 4530 2afc 010054E1 	 cmp ra, r1
 4531 2b00 3D0A000A 	 beq LA105
 4532              	@ K1082 L122
 4533 2b04 3A10A0E3 	 mov r1, #58 @ 0000003A
 4534 2b08 011B81E3 	 orr r1, r1, #1024 @ 00000400
 4535 2b0c 010054E1 	 cmp ra, r1
 4536 2b10 700A000A 	 beq LA122
 4537              	@ K1076 L108
 4538 2b14 3410A0E3 	 mov r1, #52 @ 00000034
 4539 2b18 011B81E3 	 orr r1, r1, #1024 @ 00000400
 4540 2b1c 010054E1 	 cmp ra, r1
 4541 2b20 460A000A 	 beq LA108
 4542              	@ K1073 L119
 4543 2b24 3110A0E3 	 mov r1, #49 @ 00000031
 4544 2b28 011B81E3 	 orr r1, r1, #1024 @ 00000400
 4545 2b2c 010054E1 	 cmp ra, r1
 4546 2b30 670A000A 	 beq LA119
 4547              	@ K1061 L123
 4548 2b34 2510A0E3 	 mov r1, #37 @ 00000025
 4549 2b38 011B81E3 	 orr r1, r1, #1024 @ 00000400
 4550 2b3c 010054E1 	 cmp ra, r1
 4551 2b40 730A000A 	 beq LA123
 4552              	@ K1013 L114
 4553 2b44 F510A0E3 	 mov r1, #245 @ 000000F5
 4554 2b48 031C81E3 	 orr r1, r1, #768 @ 00000300
 4555 2b4c 010054E1 	 cmp ra, r1
 4556 2b50 580A000A 	 beq LA114
 4557              	@ K1011 L112
 4558 2b54 F310A0E3 	 mov r1, #243 @ 000000F3
 4559 2b58 031C81E3 	 orr r1, r1, #768 @ 00000300
 4560 2b5c 010054E1 	 cmp ra, r1
 4561 2b60 520A000A 	 beq LA112
 4562              	@ K1007 L100
 4563 2b64 EF10A0E3 	 mov r1, #239 @ 000000EF
 4564 2b68 031C81E3 	 orr r1, r1, #768 @ 00000300
 4565 2b6c 010054E1 	 cmp ra, r1
 4566 2b70 2E0A000A 	 beq LA100
 4567              	@ K995 L97
 4568 2b74 E310A0E3 	 mov r1, #227 @ 000000E3
 4569 2b78 031C81E3 	 orr r1, r1, #768 @ 00000300
 4570 2b7c 010054E1 	 cmp ra, r1
 4571 2b80 250A000A 	 beq LA97
 4572              	@ K855 L99
 4573 2b84 5710A0E3 	 mov r1, #87 @ 00000057
 4574 2b88 031C81E3 	 orr r1, r1, #768 @ 00000300
 4575 2b8c 010054E1 	 cmp ra, r1
ARM GAS  temps/cmpltest.s 			page 82


 4576 2b90 2B0A000A 	 beq LA99
 4577              	@ K829 L124
 4578 2b94 3D10A0E3 	 mov r1, #61 @ 0000003D
 4579 2b98 031C81E3 	 orr r1, r1, #768 @ 00000300
 4580 2b9c 010054E1 	 cmp ra, r1
 4581 2ba0 760A000A 	 beq LA124
 4582              	@ K810 L95
 4583 2ba4 2A10A0E3 	 mov r1, #42 @ 0000002A
 4584 2ba8 031C81E3 	 orr r1, r1, #768 @ 00000300
 4585 2bac 010054E1 	 cmp ra, r1
 4586 2bb0 1F0A000A 	 beq LA95
 4587              	@ K0 L93
 4588 2bb4 000054E3 	 cmp ra, #0 @ 00000000
 4589 2bb8 170A000A 	 beq LA93
 4590              	@ K1200 L102
 4591 2bbc 4B0E54E3 	 cmp ra, #1200 @ 000004B0
 4592 2bc0 340A000A 	 beq LA102
 4593              	@ K1190 L103
 4594 2bc4 A610A0E3 	 mov r1, #166 @ 000000A6
 4595 2bc8 011B81E3 	 orr r1, r1, #1024 @ 00000400
 4596 2bcc 010054E1 	 cmp ra, r1
 4597 2bd0 370A000A 	 beq LA103
 4598 2bd4 130A00EA 	 b LA92
 4599              	 .ltorg
 4600              	@ LAB     L91
 4601              	LA91:
 4602              	@ J       L126
 4603 2bd8 2A0B00EA 	 b LA126
 4604              	 .ltorg
 4605              	
 4606              	@ LAB     L128
 4607              	LA128:
 4608              	@ IKP     K1000 P21
 4609 2bdc 54409AE5 	 ldr ra, [rp, #+84] @ 00000054
 4610 2be0 FA4F84E2 	 add ra, ra, #1000 @ 000003E8
 4611 2be4 54408AE5 	 str ra, [rp, #+84] @ 00000054
 4612              	@ J       L127
 4613 2be8 470B00EA 	 b LA127
 4614              	 .ltorg
 4615              	
 4616              	@ LAB     L129
 4617              	LA129:
 4618              	@ IKP     K1 P21
 4619 2bec 54409AE5 	 ldr ra, [rp, #+84] @ 00000054
 4620 2bf0 014084E2 	 add ra, ra, #1 @ 00000001
 4621 2bf4 54408AE5 	 str ra, [rp, #+84] @ 00000054
 4622              	@ LAB     L130
 4623              	LA130:
 4624              	@ IKP     K1 P21
 4625 2bf8 54409AE5 	 ldr ra, [rp, #+84] @ 00000054
 4626 2bfc 014084E2 	 add ra, ra, #1 @ 00000001
 4627 2c00 54408AE5 	 str ra, [rp, #+84] @ 00000054
 4628              	@ LAB     L131
 4629              	LA131:
 4630              	@ IKP     K1 P21
 4631 2c04 54409AE5 	 ldr ra, [rp, #+84] @ 00000054
 4632 2c08 014084E2 	 add ra, ra, #1 @ 00000001
ARM GAS  temps/cmpltest.s 			page 83


 4633 2c0c 54408AE5 	 str ra, [rp, #+84] @ 00000054
 4634              	@ LAB     L132
 4635              	LA132:
 4636              	@ IKP     K1 P21
 4637 2c10 54409AE5 	 ldr ra, [rp, #+84] @ 00000054
 4638 2c14 014084E2 	 add ra, ra, #1 @ 00000001
 4639 2c18 54408AE5 	 str ra, [rp, #+84] @ 00000054
 4640              	@ LAB     L133
 4641              	LA133:
 4642              	@ IKP     K1 P21
 4643 2c1c 54409AE5 	 ldr ra, [rp, #+84] @ 00000054
 4644 2c20 014084E2 	 add ra, ra, #1 @ 00000001
 4645 2c24 54408AE5 	 str ra, [rp, #+84] @ 00000054
 4646              	@ LAB     L134
 4647              	LA134:
 4648              	@ IKP     K1 P21
 4649 2c28 54409AE5 	 ldr ra, [rp, #+84] @ 00000054
 4650 2c2c 014084E2 	 add ra, ra, #1 @ 00000001
 4651 2c30 54408AE5 	 str ra, [rp, #+84] @ 00000054
 4652              	@ LAB     L135
 4653              	LA135:
 4654              	@ IKP     K1 P21
 4655 2c34 54409AE5 	 ldr ra, [rp, #+84] @ 00000054
 4656 2c38 014084E2 	 add ra, ra, #1 @ 00000001
 4657 2c3c 54408AE5 	 str ra, [rp, #+84] @ 00000054
 4658              	@ LAB     L136
 4659              	LA136:
 4660              	@ IKP     K1 P21
 4661 2c40 54409AE5 	 ldr ra, [rp, #+84] @ 00000054
 4662 2c44 014084E2 	 add ra, ra, #1 @ 00000001
 4663 2c48 54408AE5 	 str ra, [rp, #+84] @ 00000054
 4664              	@ LAB     L137
 4665              	LA137:
 4666              	@ IKP     K1 P21
 4667 2c4c 54409AE5 	 ldr ra, [rp, #+84] @ 00000054
 4668 2c50 014084E2 	 add ra, ra, #1 @ 00000001
 4669 2c54 54408AE5 	 str ra, [rp, #+84] @ 00000054
 4670              	@ LAB     L138
 4671              	LA138:
 4672              	@ IKP     K1 P21
 4673 2c58 54409AE5 	 ldr ra, [rp, #+84] @ 00000054
 4674 2c5c 014084E2 	 add ra, ra, #1 @ 00000001
 4675 2c60 54408AE5 	 str ra, [rp, #+84] @ 00000054
 4676              	@ LAB     L139
 4677              	LA139:
 4678              	@ IKP     K1 P21
 4679 2c64 54409AE5 	 ldr ra, [rp, #+84] @ 00000054
 4680 2c68 014084E2 	 add ra, ra, #1 @ 00000001
 4681 2c6c 54408AE5 	 str ra, [rp, #+84] @ 00000054
 4682              	@ LAB     L140
 4683              	LA140:
 4684              	@ IKP     K1 P21
 4685 2c70 54409AE5 	 ldr ra, [rp, #+84] @ 00000054
 4686 2c74 014084E2 	 add ra, ra, #1 @ 00000001
 4687 2c78 54408AE5 	 str ra, [rp, #+84] @ 00000054
 4688              	@ LAB     L141
 4689              	LA141:
ARM GAS  temps/cmpltest.s 			page 84


 4690              	@ IKP     K1 P21
 4691 2c7c 54409AE5 	 ldr ra, [rp, #+84] @ 00000054
 4692 2c80 014084E2 	 add ra, ra, #1 @ 00000001
 4693 2c84 54408AE5 	 str ra, [rp, #+84] @ 00000054
 4694              	@ LAB     L142
 4695              	LA142:
 4696              	@ IKP     K1 P21
 4697 2c88 54409AE5 	 ldr ra, [rp, #+84] @ 00000054
 4698 2c8c 014084E2 	 add ra, ra, #1 @ 00000001
 4699 2c90 54408AE5 	 str ra, [rp, #+84] @ 00000054
 4700              	@ LAB     L143
 4701              	LA143:
 4702              	@ IKP     K1 P21
 4703 2c94 54409AE5 	 ldr ra, [rp, #+84] @ 00000054
 4704 2c98 014084E2 	 add ra, ra, #1 @ 00000001
 4705 2c9c 54408AE5 	 str ra, [rp, #+84] @ 00000054
 4706              	@ LAB     L144
 4707              	LA144:
 4708              	@ IKP     K1 P21
 4709 2ca0 54409AE5 	 ldr ra, [rp, #+84] @ 00000054
 4710 2ca4 014084E2 	 add ra, ra, #1 @ 00000001
 4711 2ca8 54408AE5 	 str ra, [rp, #+84] @ 00000054
 4712              	@ J       L127
 4713 2cac 470B00EA 	 b LA127
 4714              	 .ltorg
 4715              	
 4716              	@ LAB     L126
 4717              	LA126:
 4718              	@ L       K10000
 4719 2cb0 714EA0E3 	 mov ra, #1808 @ 00000710
 4720 2cb4 024A84E3 	 orr ra, ra, #8192 @ 00002000
 4721              	@ AP      P25
 4722 2cb8 64109AE5 	 ldr r1, [rp, #+100] @ 00000064
 4723 2cbc 014084E0 	 add ra, ra, r1
 4724              	@ S       K10010
 4725 2cc0 1A4044E2 	 sub ra, ra, #26 @ 0000001A
 4726 2cc4 274C44E2 	 sub ra, ra, #9984 @ 00002700
 4727              	@ SWL K20 L128
 4728 2cc8 140054E3 	 cmp ra, #20 @ 00000014
 4729 2ccc 04F19F37 	 ldrlo pc, [pc, ra, lsl #2]
 4730 2cd0 F50A00EA 	 b LA128
 4731 2cd4 642C0000 	 .long LA139
 4732 2cd8 702C0000 	 .long LA140
 4733 2cdc 7C2C0000 	 .long LA141
 4734 2ce0 882C0000 	 .long LA142
 4735 2ce4 942C0000 	 .long LA143
 4736 2ce8 A02C0000 	 .long LA144
 4737 2cec DC2B0000 	 .long LA128
 4738 2cf0 DC2B0000 	 .long LA128
 4739 2cf4 DC2B0000 	 .long LA128
 4740 2cf8 DC2B0000 	 .long LA128
 4741 2cfc EC2B0000 	 .long LA129
 4742 2d00 F82B0000 	 .long LA130
 4743 2d04 042C0000 	 .long LA131
 4744 2d08 102C0000 	 .long LA132
 4745 2d0c 1C2C0000 	 .long LA133
 4746 2d10 282C0000 	 .long LA134
ARM GAS  temps/cmpltest.s 			page 85


 4747 2d14 342C0000 	 .long LA135
 4748 2d18 402C0000 	 .long LA136
 4749 2d1c 4C2C0000 	 .long LA137
 4750 2d20 582C0000 	 .long LA138
 4751              	 .ltorg
 4752              	@ LAB     L127
 4753              	LA127:
 4754              	@ J       L145
 4755 2d24 B20B00EA 	 b LA145
 4756              	 .ltorg
 4757              	
 4758              	@ LAB     L147
 4759              	LA147:
 4760              	@ IKP     K1000 P23
 4761 2d28 5C409AE5 	 ldr ra, [rp, #+92] @ 0000005C
 4762 2d2c FA4F84E2 	 add ra, ra, #1000 @ 000003E8
 4763 2d30 5C408AE5 	 str ra, [rp, #+92] @ 0000005C
 4764              	@ J       L146
 4765 2d34 310C00EA 	 b LA146
 4766              	 .ltorg
 4767              	
 4768              	@ LAB     L148
 4769              	LA148:
 4770              	@ LP      P25
 4771 2d38 64409AE5 	 ldr ra, [rp, #+100] @ 00000064
 4772              	@ IP      P24
 4773 2d3c 60109AE5 	 ldr r1, [rp, #+96] @ 00000060
 4774 2d40 044081E0 	 add ra, r1, ra
 4775 2d44 60408AE5 	 str ra, [rp, #+96] @ 00000060
 4776              	@ J       L146
 4777 2d48 310C00EA 	 b LA146
 4778              	 .ltorg
 4779              	
 4780              	@ LAB     L149
 4781              	LA149:
 4782              	@ IKP     K1 P23
 4783 2d4c 5C409AE5 	 ldr ra, [rp, #+92] @ 0000005C
 4784 2d50 014084E2 	 add ra, ra, #1 @ 00000001
 4785 2d54 5C408AE5 	 str ra, [rp, #+92] @ 0000005C
 4786              	@ LAB     L150
 4787              	LA150:
 4788              	@ IKP     K1 P23
 4789 2d58 5C409AE5 	 ldr ra, [rp, #+92] @ 0000005C
 4790 2d5c 014084E2 	 add ra, ra, #1 @ 00000001
 4791 2d60 5C408AE5 	 str ra, [rp, #+92] @ 0000005C
 4792              	@ LAB     L151
 4793              	LA151:
 4794              	@ IKP     K1 P23
 4795 2d64 5C409AE5 	 ldr ra, [rp, #+92] @ 0000005C
 4796 2d68 014084E2 	 add ra, ra, #1 @ 00000001
 4797 2d6c 5C408AE5 	 str ra, [rp, #+92] @ 0000005C
 4798              	@ LAB     L152
 4799              	LA152:
 4800              	@ IKP     K1 P23
 4801 2d70 5C409AE5 	 ldr ra, [rp, #+92] @ 0000005C
 4802 2d74 014084E2 	 add ra, ra, #1 @ 00000001
 4803 2d78 5C408AE5 	 str ra, [rp, #+92] @ 0000005C
ARM GAS  temps/cmpltest.s 			page 86


 4804              	@ LAB     L153
 4805              	LA153:
 4806              	@ IKP     K1 P23
 4807 2d7c 5C409AE5 	 ldr ra, [rp, #+92] @ 0000005C
 4808 2d80 014084E2 	 add ra, ra, #1 @ 00000001
 4809 2d84 5C408AE5 	 str ra, [rp, #+92] @ 0000005C
 4810              	@ LAB     L154
 4811              	LA154:
 4812              	@ IKP     K1 P23
 4813 2d88 5C409AE5 	 ldr ra, [rp, #+92] @ 0000005C
 4814 2d8c 014084E2 	 add ra, ra, #1 @ 00000001
 4815 2d90 5C408AE5 	 str ra, [rp, #+92] @ 0000005C
 4816              	@ LAB     L155
 4817              	LA155:
 4818              	@ IKP     K1 P23
 4819 2d94 5C409AE5 	 ldr ra, [rp, #+92] @ 0000005C
 4820 2d98 014084E2 	 add ra, ra, #1 @ 00000001
 4821 2d9c 5C408AE5 	 str ra, [rp, #+92] @ 0000005C
 4822              	@ LAB     L156
 4823              	LA156:
 4824              	@ IKP     K1 P23
 4825 2da0 5C409AE5 	 ldr ra, [rp, #+92] @ 0000005C
 4826 2da4 014084E2 	 add ra, ra, #1 @ 00000001
 4827 2da8 5C408AE5 	 str ra, [rp, #+92] @ 0000005C
 4828              	@ LAB     L157
 4829              	LA157:
 4830              	@ IKP     K1 P23
 4831 2dac 5C409AE5 	 ldr ra, [rp, #+92] @ 0000005C
 4832 2db0 014084E2 	 add ra, ra, #1 @ 00000001
 4833 2db4 5C408AE5 	 str ra, [rp, #+92] @ 0000005C
 4834              	@ LAB     L158
 4835              	LA158:
 4836              	@ IKP     K1 P23
 4837 2db8 5C409AE5 	 ldr ra, [rp, #+92] @ 0000005C
 4838 2dbc 014084E2 	 add ra, ra, #1 @ 00000001
 4839 2dc0 5C408AE5 	 str ra, [rp, #+92] @ 0000005C
 4840              	@ LAB     L159
 4841              	LA159:
 4842              	@ IKP     K1 P23
 4843 2dc4 5C409AE5 	 ldr ra, [rp, #+92] @ 0000005C
 4844 2dc8 014084E2 	 add ra, ra, #1 @ 00000001
 4845 2dcc 5C408AE5 	 str ra, [rp, #+92] @ 0000005C
 4846              	@ LAB     L160
 4847              	LA160:
 4848              	@ IKP     K1 P23
 4849 2dd0 5C409AE5 	 ldr ra, [rp, #+92] @ 0000005C
 4850 2dd4 014084E2 	 add ra, ra, #1 @ 00000001
 4851 2dd8 5C408AE5 	 str ra, [rp, #+92] @ 0000005C
 4852              	@ LAB     L161
 4853              	LA161:
 4854              	@ IKP     K1 P23
 4855 2ddc 5C409AE5 	 ldr ra, [rp, #+92] @ 0000005C
 4856 2de0 014084E2 	 add ra, ra, #1 @ 00000001
 4857 2de4 5C408AE5 	 str ra, [rp, #+92] @ 0000005C
 4858              	@ LAB     L162
 4859              	LA162:
 4860              	@ IKP     K1 P23
ARM GAS  temps/cmpltest.s 			page 87


 4861 2de8 5C409AE5 	 ldr ra, [rp, #+92] @ 0000005C
 4862 2dec 014084E2 	 add ra, ra, #1 @ 00000001
 4863 2df0 5C408AE5 	 str ra, [rp, #+92] @ 0000005C
 4864              	@ LAB     L163
 4865              	LA163:
 4866              	@ IKP     K1 P23
 4867 2df4 5C409AE5 	 ldr ra, [rp, #+92] @ 0000005C
 4868 2df8 014084E2 	 add ra, ra, #1 @ 00000001
 4869 2dfc 5C408AE5 	 str ra, [rp, #+92] @ 0000005C
 4870              	@ LAB     L164
 4871              	LA164:
 4872              	@ IKP     K1 P23
 4873 2e00 5C409AE5 	 ldr ra, [rp, #+92] @ 0000005C
 4874 2e04 014084E2 	 add ra, ra, #1 @ 00000001
 4875 2e08 5C408AE5 	 str ra, [rp, #+92] @ 0000005C
 4876              	@ LAB     L165
 4877              	LA165:
 4878              	@ IKP     K1 P23
 4879 2e0c 5C409AE5 	 ldr ra, [rp, #+92] @ 0000005C
 4880 2e10 014084E2 	 add ra, ra, #1 @ 00000001
 4881 2e14 5C408AE5 	 str ra, [rp, #+92] @ 0000005C
 4882              	@ LAB     L166
 4883              	LA166:
 4884              	@ IKP     K1 P23
 4885 2e18 5C409AE5 	 ldr ra, [rp, #+92] @ 0000005C
 4886 2e1c 014084E2 	 add ra, ra, #1 @ 00000001
 4887 2e20 5C408AE5 	 str ra, [rp, #+92] @ 0000005C
 4888              	@ LAB     L167
 4889              	LA167:
 4890              	@ IKP     K1 P23
 4891 2e24 5C409AE5 	 ldr ra, [rp, #+92] @ 0000005C
 4892 2e28 014084E2 	 add ra, ra, #1 @ 00000001
 4893 2e2c 5C408AE5 	 str ra, [rp, #+92] @ 0000005C
 4894              	@ LAB     L168
 4895              	LA168:
 4896              	@ IKP     K1 P23
 4897 2e30 5C409AE5 	 ldr ra, [rp, #+92] @ 0000005C
 4898 2e34 014084E2 	 add ra, ra, #1 @ 00000001
 4899 2e38 5C408AE5 	 str ra, [rp, #+92] @ 0000005C
 4900              	@ LAB     L169
 4901              	LA169:
 4902              	@ IKP     K1 P23
 4903 2e3c 5C409AE5 	 ldr ra, [rp, #+92] @ 0000005C
 4904 2e40 014084E2 	 add ra, ra, #1 @ 00000001
 4905 2e44 5C408AE5 	 str ra, [rp, #+92] @ 0000005C
 4906              	@ LAB     L170
 4907              	LA170:
 4908              	@ IKP     K1 P23
 4909 2e48 5C409AE5 	 ldr ra, [rp, #+92] @ 0000005C
 4910 2e4c 014084E2 	 add ra, ra, #1 @ 00000001
 4911 2e50 5C408AE5 	 str ra, [rp, #+92] @ 0000005C
 4912              	@ LAB     L171
 4913              	LA171:
 4914              	@ IKP     K1 P23
 4915 2e54 5C409AE5 	 ldr ra, [rp, #+92] @ 0000005C
 4916 2e58 014084E2 	 add ra, ra, #1 @ 00000001
 4917 2e5c 5C408AE5 	 str ra, [rp, #+92] @ 0000005C
ARM GAS  temps/cmpltest.s 			page 88


 4918              	@ LAB     L172
 4919              	LA172:
 4920              	@ IKP     K1 P23
 4921 2e60 5C409AE5 	 ldr ra, [rp, #+92] @ 0000005C
 4922 2e64 014084E2 	 add ra, ra, #1 @ 00000001
 4923 2e68 5C408AE5 	 str ra, [rp, #+92] @ 0000005C
 4924              	@ LAB     L173
 4925              	LA173:
 4926              	@ IKP     K1 P23
 4927 2e6c 5C409AE5 	 ldr ra, [rp, #+92] @ 0000005C
 4928 2e70 014084E2 	 add ra, ra, #1 @ 00000001
 4929 2e74 5C408AE5 	 str ra, [rp, #+92] @ 0000005C
 4930              	@ LAB     L174
 4931              	LA174:
 4932              	@ IKP     K1 P23
 4933 2e78 5C409AE5 	 ldr ra, [rp, #+92] @ 0000005C
 4934 2e7c 014084E2 	 add ra, ra, #1 @ 00000001
 4935 2e80 5C408AE5 	 str ra, [rp, #+92] @ 0000005C
 4936              	@ LAB     L175
 4937              	LA175:
 4938              	@ IKP     K1 P23
 4939 2e84 5C409AE5 	 ldr ra, [rp, #+92] @ 0000005C
 4940 2e88 014084E2 	 add ra, ra, #1 @ 00000001
 4941 2e8c 5C408AE5 	 str ra, [rp, #+92] @ 0000005C
 4942              	@ LAB     L176
 4943              	LA176:
 4944              	@ IKP     K1 P23
 4945 2e90 5C409AE5 	 ldr ra, [rp, #+92] @ 0000005C
 4946 2e94 014084E2 	 add ra, ra, #1 @ 00000001
 4947 2e98 5C408AE5 	 str ra, [rp, #+92] @ 0000005C
 4948              	@ LAB     L177
 4949              	LA177:
 4950              	@ IKP     K1 P23
 4951 2e9c 5C409AE5 	 ldr ra, [rp, #+92] @ 0000005C
 4952 2ea0 014084E2 	 add ra, ra, #1 @ 00000001
 4953 2ea4 5C408AE5 	 str ra, [rp, #+92] @ 0000005C
 4954              	@ LAB     L178
 4955              	LA178:
 4956              	@ IKP     K1 P23
 4957 2ea8 5C409AE5 	 ldr ra, [rp, #+92] @ 0000005C
 4958 2eac 014084E2 	 add ra, ra, #1 @ 00000001
 4959 2eb0 5C408AE5 	 str ra, [rp, #+92] @ 0000005C
 4960              	@ LAB     L179
 4961              	LA179:
 4962              	@ IKP     K1 P23
 4963 2eb4 5C409AE5 	 ldr ra, [rp, #+92] @ 0000005C
 4964 2eb8 014084E2 	 add ra, ra, #1 @ 00000001
 4965 2ebc 5C408AE5 	 str ra, [rp, #+92] @ 0000005C
 4966              	@ LAB     L180
 4967              	LA180:
 4968              	@ IKP     K1 P23
 4969 2ec0 5C409AE5 	 ldr ra, [rp, #+92] @ 0000005C
 4970 2ec4 014084E2 	 add ra, ra, #1 @ 00000001
 4971 2ec8 5C408AE5 	 str ra, [rp, #+92] @ 0000005C
 4972              	@ J       L146
 4973 2ecc 310C00EA 	 b LA146
 4974              	 .ltorg
ARM GAS  temps/cmpltest.s 			page 89


 4975              	
 4976              	@ LAB     L145
 4977              	LA145:
 4978              	@ L       K100
 4979 2ed0 6440A0E3 	 mov ra, #100 @ 00000064
 4980              	@ ATBLP   P25
 4981 2ed4 0450A0E1 	 mov rb, ra
 4982 2ed8 64409AE5 	 ldr ra, [rp, #+100] @ 00000064
 4983              	@ MUL
 4984 2edc 950404E0 	 mul ra, rb, ra
 4985              	@ S       K7100
 4986 2ee0 EF4F44E2 	 sub ra, ra, #956 @ 000003BC
 4987 2ee4 064B44E2 	 sub ra, ra, #6144 @ 00001800
 4988              	@ JGE0M   M11
 4989 2ee8 000054E3 	 cmp ra, #0
 4990 2eec 020C00AA 	 bge MA11
 4991              	@ A       K7100
 4992 2ef0 EF4F84E2 	 add ra, ra, #956 @ 000003BC
 4993 2ef4 064B84E2 	 add ra, ra, #6144 @ 00001800
 4994              	@ JGE0M   M12
 4995 2ef8 000054E3 	 cmp ra, #0
 4996 2efc E90B00AA 	 bge MA12
 4997              	@ A       K16200
 4998 2f00 D24F84E2 	 add ra, ra, #840 @ 00000348
 4999 2f04 0F4B84E2 	 add ra, ra, #15360 @ 00003C00
 5000              	@ JGE0M   M13
 5001 2f08 000054E3 	 cmp ra, #0
 5002 2f0c DC0B00AA 	 bge MA13
 5003              	@ A       K1800
 5004 2f10 C24F84E2 	 add ra, ra, #776 @ 00000308
 5005 2f14 014B84E2 	 add ra, ra, #1024 @ 00000400
 5006              	@ JGE0M   M14
 5007 2f18 000054E3 	 cmp ra, #0
 5008 2f1c D70B00AA 	 bge MA14
 5009              	@ A       K1000
 5010 2f20 FA4F84E2 	 add ra, ra, #1000 @ 000003E8
 5011              	@ JGE0M   M15
 5012 2f24 000054E3 	 cmp ra, #0
 5013 2f28 D40B00AA 	 bge MA15
 5014              	@ A       K1000
 5015 2f2c FA4F84E2 	 add ra, ra, #1000 @ 000003E8
 5016              	@ JGE0M   M16
 5017 2f30 000054E3 	 cmp ra, #0
 5018 2f34 D10B00AA 	 bge MA16
 5019              	@ A       K80000
 5020 2f38 E24D84E2 	 add ra, ra, #14464 @ 00003880
 5021 2f3c 014884E2 	 add ra, ra, #65536 @ 00010000
 5022              	@ JEQ0    L148
 5023 2f40 000054E3 	 cmp ra, #0
 5024 2f44 4C0B000A 	 beq LA148
 5025              	@ J       L147
 5026 2f48 480B00EA 	 b LA147
 5027              	 .ltorg
 5028              	
 5029              	@ MLAB    M16
 5030              	MA16:
 5031              	@ JEQ0    L149
ARM GAS  temps/cmpltest.s 			page 90


 5032 2f4c 000054E3 	 cmp ra, #0
 5033 2f50 510B000A 	 beq LA149
 5034              	@ J       L147
 5035 2f54 480B00EA 	 b LA147
 5036              	 .ltorg
 5037              	
 5038              	@ MLAB    M15
 5039              	MA15:
 5040              	@ JEQ0    L150
 5041 2f58 000054E3 	 cmp ra, #0
 5042 2f5c 540B000A 	 beq LA150
 5043              	@ J       L147
 5044 2f60 480B00EA 	 b LA147
 5045              	 .ltorg
 5046              	
 5047              	@ MLAB    M14
 5048              	MA14:
 5049              	@ SWB K2 L147
 5050              	@ K0 L151
 5051 2f64 000054E3 	 cmp ra, #0 @ 00000000
 5052 2f68 570B000A 	 beq LA151
 5053              	@ K900 L179
 5054 2f6c E10F54E3 	 cmp ra, #900 @ 00000384
 5055 2f70 AB0B000A 	 beq LA179
 5056 2f74 480B00EA 	 b LA147
 5057              	 .ltorg
 5058              	@ MLAB    M13
 5059              	MA13:
 5060              	@ SWB K4 L147
 5061              	@ K1700 L154
 5062 2f78 A91FA0E3 	 mov r1, #676 @ 000002A4
 5063 2f7c 011B81E3 	 orr r1, r1, #1024 @ 00000400
 5064 2f80 010054E1 	 cmp ra, r1
 5065 2f84 600B000A 	 beq LA154
 5066              	@ K6400 L166
 5067 2f88 190C54E3 	 cmp ra, #6400 @ 00001900
 5068 2f8c 840B000A 	 beq LA166
 5069              	@ K0 L180
 5070 2f90 000054E3 	 cmp ra, #0 @ 00000000
 5071 2f94 AE0B000A 	 beq LA180
 5072              	@ K15700 L152
 5073 2f98 551FA0E3 	 mov r1, #340 @ 00000154
 5074 2f9c 0F1B81E3 	 orr r1, r1, #15360 @ 00003C00
 5075 2fa0 010054E1 	 cmp ra, r1
 5076 2fa4 5A0B000A 	 beq LA152
 5077 2fa8 480B00EA 	 b LA147
 5078              	 .ltorg
 5079              	@ MLAB    M12
 5080              	MA12:
 5081              	@ SWB K8 L147
 5082              	@ K1100 L167
 5083 2fac 4C10A0E3 	 mov r1, #76 @ 0000004C
 5084 2fb0 011B81E3 	 orr r1, r1, #1024 @ 00000400
 5085 2fb4 010054E1 	 cmp ra, r1
 5086 2fb8 870B000A 	 beq LA167
 5087              	@ K1300 L169
 5088 2fbc 451FA0E3 	 mov r1, #276 @ 00000114
ARM GAS  temps/cmpltest.s 			page 91


 5089 2fc0 011B81E3 	 orr r1, r1, #1024 @ 00000400
 5090 2fc4 010054E1 	 cmp ra, r1
 5091 2fc8 8D0B000A 	 beq LA169
 5092              	@ K700 L155
 5093 2fcc AF0F54E3 	 cmp ra, #700 @ 000002BC
 5094 2fd0 630B000A 	 beq LA155
 5095              	@ K4100 L170
 5096 2fd4 0410A0E3 	 mov r1, #4 @ 00000004
 5097 2fd8 011A81E3 	 orr r1, r1, #4096 @ 00001000
 5098 2fdc 010054E1 	 cmp ra, r1
 5099 2fe0 900B000A 	 beq LA170
 5100              	@ K1200 L168
 5101 2fe4 4B0E54E3 	 cmp ra, #1200 @ 000004B0
 5102 2fe8 8A0B000A 	 beq LA168
 5103              	@ K800 L156
 5104 2fec 320E54E3 	 cmp ra, #800 @ 00000320
 5105 2ff0 660B000A 	 beq LA156
 5106              	@ K0 L153
 5107 2ff4 000054E3 	 cmp ra, #0 @ 00000000
 5108 2ff8 5D0B000A 	 beq LA153
 5109              	@ K6100 L178
 5110 2ffc F51FA0E3 	 mov r1, #980 @ 000003D4
 5111 3000 051B81E3 	 orr r1, r1, #5120 @ 00001400
 5112 3004 010054E1 	 cmp ra, r1
 5113 3008 A80B000A 	 beq LA178
 5114 300c 480B00EA 	 b LA147
 5115              	 .ltorg
 5116              	@ MLAB    M11
 5117              	MA11:
 5118              	@ SWB K16 L147
 5119              	@ K1900 L160
 5120 3010 DB1FA0E3 	 mov r1, #876 @ 0000036C
 5121 3014 011B81E3 	 orr r1, r1, #1024 @ 00000400
 5122 3018 010054E1 	 cmp ra, r1
 5123 301c 720B000A 	 beq LA160
 5124              	@ K2800 L165
 5125 3020 AF0E54E3 	 cmp ra, #2800 @ 00000AF0
 5126 3024 810B000A 	 beq LA165
 5127              	@ K500 L163
 5128 3028 7D0F54E3 	 cmp ra, #500 @ 000001F4
 5129 302c 7B0B000A 	 beq LA163
 5130              	@ K11900 L158
 5131 3030 9F1FA0E3 	 mov r1, #636 @ 0000027C
 5132 3034 0B1B81E3 	 orr r1, r1, #11264 @ 00002C00
 5133 3038 010054E1 	 cmp ra, r1
 5134 303c 6C0B000A 	 beq LA158
 5135              	@ K2100 L172
 5136 3040 3410A0E3 	 mov r1, #52 @ 00000034
 5137 3044 021B81E3 	 orr r1, r1, #2048 @ 00000800
 5138 3048 010054E1 	 cmp ra, r1
 5139 304c 960B000A 	 beq LA172
 5140              	@ K1100 L177
 5141 3050 4C10A0E3 	 mov r1, #76 @ 0000004C
 5142 3054 011B81E3 	 orr r1, r1, #1024 @ 00000400
 5143 3058 010054E1 	 cmp ra, r1
 5144 305c A50B000A 	 beq LA177
 5145              	@ K200 L174
ARM GAS  temps/cmpltest.s 			page 92


 5146 3060 C80054E3 	 cmp ra, #200 @ 000000C8
 5147 3064 9C0B000A 	 beq LA174
 5148              	@ K12800 L161
 5149 3068 320C54E3 	 cmp ra, #12800 @ 00003200
 5150 306c 750B000A 	 beq LA161
 5151              	@ K2900 L159
 5152 3070 D51FA0E3 	 mov r1, #852 @ 00000354
 5153 3074 021B81E3 	 orr r1, r1, #2048 @ 00000800
 5154 3078 010054E1 	 cmp ra, r1
 5155 307c 6F0B000A 	 beq LA159
 5156              	@ K2400 L162
 5157 3080 960E54E3 	 cmp ra, #2400 @ 00000960
 5158 3084 780B000A 	 beq LA162
 5159              	@ K2000 L171
 5160 3088 7D0E54E3 	 cmp ra, #2000 @ 000007D0
 5161 308c 930B000A 	 beq LA171
 5162              	@ K1700 L164
 5163 3090 A91FA0E3 	 mov r1, #676 @ 000002A4
 5164 3094 011B81E3 	 orr r1, r1, #1024 @ 00000400
 5165 3098 010054E1 	 cmp ra, r1
 5166 309c 7E0B000A 	 beq LA164
 5167              	@ K1000 L176
 5168 30a0 FA0F54E3 	 cmp ra, #1000 @ 000003E8
 5169 30a4 A20B000A 	 beq LA176
 5170              	@ K300 L175
 5171 30a8 4B0F54E3 	 cmp ra, #300 @ 0000012C
 5172 30ac 9F0B000A 	 beq LA175
 5173              	@ K0 L173
 5174 30b0 000054E3 	 cmp ra, #0 @ 00000000
 5175 30b4 990B000A 	 beq LA173
 5176              	@ K12900 L157
 5177 30b8 991FA0E3 	 mov r1, #612 @ 00000264
 5178 30bc 031A81E3 	 orr r1, r1, #12288 @ 00003000
 5179 30c0 010054E1 	 cmp ra, r1
 5180 30c4 690B000A 	 beq LA157
 5181 30c8 480B00EA 	 b LA147
 5182              	 .ltorg
 5183              	@ LAB     L146
 5184              	LA146:
 5185              	@ IKP     K1 P25
 5186 30cc 64409AE5 	 ldr ra, [rp, #+100] @ 00000064
 5187 30d0 014084E2 	 add ra, ra, #1 @ 00000001
 5188 30d4 64408AE5 	 str ra, [rp, #+100] @ 00000064
 5189              	@ ATBL    K200
 5190 30d8 0450A0E1 	 mov rb, ra
 5191 30dc C840A0E3 	 mov ra, #200 @ 000000C8
 5192              	@ JLE     L89
 5193 30e0 040055E1 	 cmp rb, ra
 5194 30e4 100A00DA 	 ble LA89
 5195              	@ L       K0
 5196 30e8 0040A0E3 	 mov ra, #0 @ 00000000
 5197              	@ SP      P29
 5198 30ec 74408AE5 	 str ra, [rp, #+116] @ 00000074
 5199              	@ LP      P20
 5200 30f0 50409AE5 	 ldr ra, [rp, #+80] @ 00000050
 5201              	@ KPG     P25 G208
 5202 30f4 40139BE5 	 ldr r1, [rg, #+832] @ 00000340
ARM GAS  temps/cmpltest.s 			page 93


 5203 30f8 64208AE2 	 add r2, rp, #100 @ 00000064
 5204 30fc 0FE0A0E1 	 mov lr, pc
 5205 3100 01F0A0E1 	 mov pc, r1
 5206              	@ L       K0
 5207 3104 0040A0E3 	 mov ra, #0 @ 00000000
 5208              	@ SP      P29
 5209 3108 74408AE5 	 str ra, [rp, #+116] @ 00000074
 5210              	@ LP      P22
 5211 310c 58409AE5 	 ldr ra, [rp, #+88] @ 00000058
 5212              	@ KPG     P25 G208
 5213 3110 40139BE5 	 ldr r1, [rg, #+832] @ 00000340
 5214 3114 64208AE2 	 add r2, rp, #100 @ 00000064
 5215 3118 0FE0A0E1 	 mov lr, pc
 5216 311c 01F0A0E1 	 mov pc, r1
 5217              	@ L       K0
 5218 3120 0040A0E3 	 mov ra, #0 @ 00000000
 5219              	@ SP      P29
 5220 3124 74408AE5 	 str ra, [rp, #+116] @ 00000074
 5221              	@ LP      P24
 5222 3128 60409AE5 	 ldr ra, [rp, #+96] @ 00000060
 5223              	@ KPG     P25 G208
 5224 312c 40139BE5 	 ldr r1, [rg, #+832] @ 00000340
 5225 3130 64208AE2 	 add r2, rp, #100 @ 00000064
 5226 3134 0FE0A0E1 	 mov lr, pc
 5227 3138 01F0A0E1 	 mov pc, r1
 5228              	@ L       K369528
 5229 313c DE4FA0E3 	 mov ra, #888 @ 00000378
 5230 3140 5A4A84E3 	 orr ra, ra, #368640 @ 0005A000
 5231              	@ SP      P29
 5232 3144 74408AE5 	 str ra, [rp, #+116] @ 00000074
 5233              	@ LP      P19
 5234 3148 4C409AE5 	 ldr ra, [rp, #+76] @ 0000004C
 5235              	@ KPG     P25 G208
 5236 314c 40139BE5 	 ldr r1, [rg, #+832] @ 00000340
 5237 3150 64208AE2 	 add r2, rp, #100 @ 00000064
 5238 3154 0FE0A0E1 	 mov lr, pc
 5239 3158 01F0A0E1 	 mov pc, r1
 5240              	@ L       K385136
 5241 315c 7040A0E3 	 mov ra, #112 @ 00000070
 5242 3160 5E4A84E3 	 orr ra, ra, #385024 @ 0005E000
 5243              	@ SP      P29
 5244 3164 74408AE5 	 str ra, [rp, #+116] @ 00000074
 5245              	@ LP      P21
 5246 3168 54409AE5 	 ldr ra, [rp, #+84] @ 00000054
 5247              	@ KPG     P25 G208
 5248 316c 40139BE5 	 ldr r1, [rg, #+832] @ 00000340
 5249 3170 64208AE2 	 add r2, rp, #100 @ 00000064
 5250 3174 0FE0A0E1 	 mov lr, pc
 5251 3178 01F0A0E1 	 mov pc, r1
 5252              	@ L       K369528
 5253 317c DE4FA0E3 	 mov ra, #888 @ 00000378
 5254 3180 5A4A84E3 	 orr ra, ra, #368640 @ 0005A000
 5255              	@ SP      P29
 5256 3184 74408AE5 	 str ra, [rp, #+116] @ 00000074
 5257              	@ LP      P23
 5258 3188 5C409AE5 	 ldr ra, [rp, #+92] @ 0000005C
 5259              	@ KPG     P25 G208
ARM GAS  temps/cmpltest.s 			page 94


 5260 318c 40139BE5 	 ldr r1, [rg, #+832] @ 00000340
 5261 3190 64208AE2 	 add r2, rp, #100 @ 00000064
 5262 3194 0FE0A0E1 	 mov lr, pc
 5263 3198 01F0A0E1 	 mov pc, r1
 5264              	@ L       K250
 5265 319c FA40A0E3 	 mov ra, #250 @ 000000FA
 5266              	@ SG      G203
 5267 31a0 2C438BE5 	 str ra, [rg, #+812] @ 0000032C
 5268              	@ L       K2
 5269 31a4 0240A0E3 	 mov ra, #2 @ 00000002
 5270              	@ SP      P23
 5271 31a8 5C408AE5 	 str ra, [rp, #+92] @ 0000005C
 5272              	@ L       K3
 5273 31ac 0340A0E3 	 mov ra, #3 @ 00000003
 5274              	@ SP      P24
 5275 31b0 60408AE5 	 str ra, [rp, #+96] @ 00000060
 5276              	@ L       K4
 5277 31b4 0440A0E3 	 mov ra, #4 @ 00000004
 5278              	@ SP      P25
 5279 31b8 64408AE5 	 str ra, [rp, #+100] @ 00000064
 5280              	@ L       K5
 5281 31bc 0540A0E3 	 mov ra, #5 @ 00000005
 5282              	@ SP      P26
 5283 31c0 68408AE5 	 str ra, [rp, #+104] @ 00000068
 5284              	@ L       K6
 5285 31c4 0640A0E3 	 mov ra, #6 @ 00000006
 5286              	@ SP      P27
 5287 31c8 6C408AE5 	 str ra, [rp, #+108] @ 0000006C
 5288              	@ L       K21
 5289 31cc 1540A0E3 	 mov ra, #21 @ 00000015
 5290              	@ SP      P28
 5291 31d0 70408AE5 	 str ra, [rp, #+112] @ 00000070
 5292              	@ L       K1
 5293 31d4 0140A0E3 	 mov ra, #1 @ 00000001
 5294              	@ ATB
 5295 31d8 0450A0E1 	 mov rb, ra
 5296              	@ LF      L23
 5297 31dc B0404FE2 	 adrl ra, LA23
 5297      2B4C44E2 
 5298              	@ K       P19
 5299 31e4 4C208AE2 	 add r2, rp, #76 @ 0000004C
 5300 31e8 0410A0E1 	 mov r1, ra
 5301 31ec 0540A0E1 	 mov ra, rb
 5302 31f0 0FE0A0E1 	 mov lr, pc
 5303 31f4 01F0A0E1 	 mov pc, r1
 5304              	@ L       K1
 5305 31f8 0140A0E3 	 mov ra, #1 @ 00000001
 5306              	@ SP      P26
 5307 31fc 68408AE5 	 str ra, [rp, #+104] @ 00000068
 5308              	@ KPG     P22 G208
 5309 3200 40139BE5 	 ldr r1, [rg, #+832] @ 00000340
 5310 3204 58208AE2 	 add r2, rp, #88 @ 00000058
 5311 3208 0FE0A0E1 	 mov lr, pc
 5312 320c 01F0A0E1 	 mov pc, r1
 5313              	@ SP      P22
 5314 3210 58408AE5 	 str ra, [rp, #+88] @ 00000058
 5315              	@ L       K2
ARM GAS  temps/cmpltest.s 			page 95


 5316 3214 0240A0E3 	 mov ra, #2 @ 00000002
 5317              	@ SP      P27
 5318 3218 6C408AE5 	 str ra, [rp, #+108] @ 0000006C
 5319              	@ KPG     P23 G208
 5320 321c 40139BE5 	 ldr r1, [rg, #+832] @ 00000340
 5321 3220 5C208AE2 	 add r2, rp, #92 @ 0000005C
 5322 3224 0FE0A0E1 	 mov lr, pc
 5323 3228 01F0A0E1 	 mov pc, r1
 5324              	@ SP      P23
 5325 322c 5C408AE5 	 str ra, [rp, #+92] @ 0000005C
 5326              	@ L       K3
 5327 3230 0340A0E3 	 mov ra, #3 @ 00000003
 5328              	@ SP      P28
 5329 3234 70408AE5 	 str ra, [rp, #+112] @ 00000070
 5330              	@ KPG     P24 G208
 5331 3238 40139BE5 	 ldr r1, [rg, #+832] @ 00000340
 5332 323c 60208AE2 	 add r2, rp, #96 @ 00000060
 5333 3240 0FE0A0E1 	 mov lr, pc
 5334 3244 01F0A0E1 	 mov pc, r1
 5335              	@ SP      P24
 5336 3248 60408AE5 	 str ra, [rp, #+96] @ 00000060
 5337              	@ L       K4
 5338 324c 0440A0E3 	 mov ra, #4 @ 00000004
 5339              	@ SP      P29
 5340 3250 74408AE5 	 str ra, [rp, #+116] @ 00000074
 5341              	@ KPG     P25 G208
 5342 3254 40139BE5 	 ldr r1, [rg, #+832] @ 00000340
 5343 3258 64208AE2 	 add r2, rp, #100 @ 00000064
 5344 325c 0FE0A0E1 	 mov lr, pc
 5345 3260 01F0A0E1 	 mov pc, r1
 5346              	@ SP      P25
 5347 3264 64408AE5 	 str ra, [rp, #+100] @ 00000064
 5348              	@ L       K5
 5349 3268 0540A0E3 	 mov ra, #5 @ 00000005
 5350              	@ SP      P30
 5351 326c 78408AE5 	 str ra, [rp, #+120] @ 00000078
 5352              	@ KPG     P26 G208
 5353 3270 40139BE5 	 ldr r1, [rg, #+832] @ 00000340
 5354 3274 68208AE2 	 add r2, rp, #104 @ 00000068
 5355 3278 0FE0A0E1 	 mov lr, pc
 5356 327c 01F0A0E1 	 mov pc, r1
 5357              	@ SP      P26
 5358 3280 68408AE5 	 str ra, [rp, #+104] @ 00000068
 5359              	@ L       K6
 5360 3284 0640A0E3 	 mov ra, #6 @ 00000006
 5361              	@ SP      P31
 5362 3288 7C408AE5 	 str ra, [rp, #+124] @ 0000007C
 5363              	@ KPG     P27 G208
 5364 328c 40139BE5 	 ldr r1, [rg, #+832] @ 00000340
 5365 3290 6C208AE2 	 add r2, rp, #108 @ 0000006C
 5366 3294 0FE0A0E1 	 mov lr, pc
 5367 3298 01F0A0E1 	 mov pc, r1
 5368              	@ SP      P27
 5369 329c 6C408AE5 	 str ra, [rp, #+108] @ 0000006C
 5370              	@ L       K21
 5371 32a0 1540A0E3 	 mov ra, #21 @ 00000015
 5372              	@ SP      P32
ARM GAS  temps/cmpltest.s 			page 96


 5373 32a4 80408AE5 	 str ra, [rp, #+128] @ 00000080
 5374              	@ KPG     P28 G208
 5375 32a8 40139BE5 	 ldr r1, [rg, #+832] @ 00000340
 5376 32ac 70208AE2 	 add r2, rp, #112 @ 00000070
 5377 32b0 0FE0A0E1 	 mov lr, pc
 5378 32b4 01F0A0E1 	 mov pc, r1
 5379              	@ SP      P28
 5380 32b8 70408AE5 	 str ra, [rp, #+112] @ 00000070
 5381              	@ LP      P22
 5382 32bc 58409AE5 	 ldr ra, [rp, #+88] @ 00000058
 5383              	@ ATB
 5384 32c0 0450A0E1 	 mov rb, ra
 5385              	@ LF      L23
 5386 32c4 98404FE2 	 adrl ra, LA23
 5386      2C4C44E2 
 5387              	@ K       P19
 5388 32cc 4C208AE2 	 add r2, rp, #76 @ 0000004C
 5389 32d0 0410A0E1 	 mov r1, ra
 5390 32d4 0540A0E1 	 mov ra, rb
 5391 32d8 0FE0A0E1 	 mov lr, pc
 5392 32dc 01F0A0E1 	 mov pc, r1
 5393              	@ L       K1
 5394 32e0 0140A0E3 	 mov ra, #1 @ 00000001
 5395              	@ LAB     L181
 5396              	LA181:
 5397              	@ SP      P22
 5398 32e4 58408AE5 	 str ra, [rp, #+88] @ 00000058
 5399              	@ L       K2
 5400 32e8 0240A0E3 	 mov ra, #2 @ 00000002
 5401              	@ LAB     L182
 5402              	LA182:
 5403              	@ SP      P23
 5404 32ec 5C408AE5 	 str ra, [rp, #+92] @ 0000005C
 5405              	@ L       K3
 5406 32f0 0340A0E3 	 mov ra, #3 @ 00000003
 5407              	@ LAB     L183
 5408              	LA183:
 5409              	@ SP      P24
 5410 32f4 60408AE5 	 str ra, [rp, #+96] @ 00000060
 5411              	@ L       K4
 5412 32f8 0440A0E3 	 mov ra, #4 @ 00000004
 5413              	@ LAB     L184
 5414              	LA184:
 5415              	@ SP      P25
 5416 32fc 64408AE5 	 str ra, [rp, #+100] @ 00000064
 5417              	@ L       K5
 5418 3300 0540A0E3 	 mov ra, #5 @ 00000005
 5419              	@ LAB     L185
 5420              	LA185:
 5421              	@ SP      P26
 5422 3304 68408AE5 	 str ra, [rp, #+104] @ 00000068
 5423              	@ L       K6
 5424 3308 0640A0E3 	 mov ra, #6 @ 00000006
 5425              	@ LAB     L186
 5426              	LA186:
 5427              	@ SP      P27
 5428 330c 6C408AE5 	 str ra, [rp, #+108] @ 0000006C
ARM GAS  temps/cmpltest.s 			page 97


 5429              	@ L       K21
 5430 3310 1540A0E3 	 mov ra, #21 @ 00000015
 5431              	@ SP      P28
 5432 3314 70408AE5 	 str ra, [rp, #+112] @ 00000070
 5433              	@ LP      P22
 5434 3318 58409AE5 	 ldr ra, [rp, #+88] @ 00000058
 5435              	@ ATB
 5436 331c 0450A0E1 	 mov rb, ra
 5437              	@ LF      L23
 5438 3320 F4404FE2 	 adrl ra, LA23
 5438      2C4C44E2 
 5439              	@ K       P19
 5440 3328 4C208AE2 	 add r2, rp, #76 @ 0000004C
 5441 332c 0410A0E1 	 mov r1, ra
 5442 3330 0540A0E1 	 mov ra, rb
 5443 3334 0FE0A0E1 	 mov lr, pc
 5444 3338 01F0A0E1 	 mov pc, r1
 5445              	@ L       K1
 5446 333c 0140A0E3 	 mov ra, #1 @ 00000001
 5447              	@ LAB     L187
 5448              	LA187:
 5449              	@ SP      P22
 5450 3340 58408AE5 	 str ra, [rp, #+88] @ 00000058
 5451              	@ L       K2
 5452 3344 0240A0E3 	 mov ra, #2 @ 00000002
 5453              	@ SP      P27
 5454 3348 6C408AE5 	 str ra, [rp, #+108] @ 0000006C
 5455              	@ KPG     P23 G208
 5456 334c 40139BE5 	 ldr r1, [rg, #+832] @ 00000340
 5457 3350 5C208AE2 	 add r2, rp, #92 @ 0000005C
 5458 3354 0FE0A0E1 	 mov lr, pc
 5459 3358 01F0A0E1 	 mov pc, r1
 5460              	@ SP      P23
 5461 335c 5C408AE5 	 str ra, [rp, #+92] @ 0000005C
 5462              	@ L       K3
 5463 3360 0340A0E3 	 mov ra, #3 @ 00000003
 5464              	@ LAB     L188
 5465              	LA188:
 5466              	@ SP      P24
 5467 3364 60408AE5 	 str ra, [rp, #+96] @ 00000060
 5468              	@ L       K4
 5469 3368 0440A0E3 	 mov ra, #4 @ 00000004
 5470              	@ SP      P29
 5471 336c 74408AE5 	 str ra, [rp, #+116] @ 00000074
 5472              	@ KPG     P25 G208
 5473 3370 40139BE5 	 ldr r1, [rg, #+832] @ 00000340
 5474 3374 64208AE2 	 add r2, rp, #100 @ 00000064
 5475 3378 0FE0A0E1 	 mov lr, pc
 5476 337c 01F0A0E1 	 mov pc, r1
 5477              	@ SP      P25
 5478 3380 64408AE5 	 str ra, [rp, #+100] @ 00000064
 5479              	@ L       K5
 5480 3384 0540A0E3 	 mov ra, #5 @ 00000005
 5481              	@ LAB     L189
 5482              	LA189:
 5483              	@ SP      P26
 5484 3388 68408AE5 	 str ra, [rp, #+104] @ 00000068
ARM GAS  temps/cmpltest.s 			page 98


 5485              	@ L       K6
 5486 338c 0640A0E3 	 mov ra, #6 @ 00000006
 5487              	@ SP      P31
 5488 3390 7C408AE5 	 str ra, [rp, #+124] @ 0000007C
 5489              	@ KPG     P27 G208
 5490 3394 40139BE5 	 ldr r1, [rg, #+832] @ 00000340
 5491 3398 6C208AE2 	 add r2, rp, #108 @ 0000006C
 5492 339c 0FE0A0E1 	 mov lr, pc
 5493 33a0 01F0A0E1 	 mov pc, r1
 5494              	@ SP      P27
 5495 33a4 6C408AE5 	 str ra, [rp, #+108] @ 0000006C
 5496              	@ L       K21
 5497 33a8 1540A0E3 	 mov ra, #21 @ 00000015
 5498              	@ SP      P28
 5499 33ac 70408AE5 	 str ra, [rp, #+112] @ 00000070
 5500              	@ LP      P22
 5501 33b0 58409AE5 	 ldr ra, [rp, #+88] @ 00000058
 5502              	@ ATB
 5503 33b4 0450A0E1 	 mov rb, ra
 5504              	@ LF      L23
 5505 33b8 8C404FE2 	 adrl ra, LA23
 5505      2D4C44E2 
 5506              	@ K       P19
 5507 33c0 4C208AE2 	 add r2, rp, #76 @ 0000004C
 5508 33c4 0410A0E1 	 mov r1, ra
 5509 33c8 0540A0E1 	 mov ra, rb
 5510 33cc 0FE0A0E1 	 mov lr, pc
 5511 33d0 01F0A0E1 	 mov pc, r1
 5512              	@ L       K2
 5513 33d4 0240A0E3 	 mov ra, #2 @ 00000002
 5514              	@ SP      P27
 5515 33d8 6C408AE5 	 str ra, [rp, #+108] @ 0000006C
 5516              	@ KPG     P23 G208
 5517 33dc 40139BE5 	 ldr r1, [rg, #+832] @ 00000340
 5518 33e0 5C208AE2 	 add r2, rp, #92 @ 0000005C
 5519 33e4 0FE0A0E1 	 mov lr, pc
 5520 33e8 01F0A0E1 	 mov pc, r1
 5521              	@ SP      P23
 5522 33ec 5C408AE5 	 str ra, [rp, #+92] @ 0000005C
 5523              	@ L       K1
 5524 33f0 0140A0E3 	 mov ra, #1 @ 00000001
 5525              	@ SP      P22
 5526 33f4 58408AE5 	 str ra, [rp, #+88] @ 00000058
 5527              	@ L       K3
 5528 33f8 0340A0E3 	 mov ra, #3 @ 00000003
 5529              	@ LAB     L190
 5530              	LA190:
 5531              	@ SP      P24
 5532 33fc 60408AE5 	 str ra, [rp, #+96] @ 00000060
 5533              	@ L       K5
 5534 3400 0540A0E3 	 mov ra, #5 @ 00000005
 5535              	@ SP      P30
 5536 3404 78408AE5 	 str ra, [rp, #+120] @ 00000078
 5537              	@ KPG     P26 G208
 5538 3408 40139BE5 	 ldr r1, [rg, #+832] @ 00000340
 5539 340c 68208AE2 	 add r2, rp, #104 @ 00000068
 5540 3410 0FE0A0E1 	 mov lr, pc
ARM GAS  temps/cmpltest.s 			page 99


 5541 3414 01F0A0E1 	 mov pc, r1
 5542              	@ SP      P26
 5543 3418 68408AE5 	 str ra, [rp, #+104] @ 00000068
 5544              	@ L       K4
 5545 341c 0440A0E3 	 mov ra, #4 @ 00000004
 5546              	@ SP      P25
 5547 3420 64408AE5 	 str ra, [rp, #+100] @ 00000064
 5548              	@ L       K6
 5549 3424 0640A0E3 	 mov ra, #6 @ 00000006
 5550              	@ LAB     L191
 5551              	LA191:
 5552              	@ SP      P27
 5553 3428 6C408AE5 	 str ra, [rp, #+108] @ 0000006C
 5554              	@ L       K21
 5555 342c 1540A0E3 	 mov ra, #21 @ 00000015
 5556              	@ SP      P28
 5557 3430 70408AE5 	 str ra, [rp, #+112] @ 00000070
 5558              	@ LP      P22
 5559 3434 58409AE5 	 ldr ra, [rp, #+88] @ 00000058
 5560              	@ ATB
 5561 3438 0450A0E1 	 mov rb, ra
 5562              	@ LF      L23
 5563 343c 10404FE2 	 adrl ra, LA23
 5563      2E4C44E2 
 5564              	@ K       P19
 5565 3444 4C208AE2 	 add r2, rp, #76 @ 0000004C
 5566 3448 0410A0E1 	 mov r1, ra
 5567 344c 0540A0E1 	 mov ra, rb
 5568 3450 0FE0A0E1 	 mov lr, pc
 5569 3454 01F0A0E1 	 mov pc, r1
 5570              	@ LKG     K0 G205
 5571 3458 34439BE5 	 ldr ra, [rg, #+820] @ 00000334
 5572 345c 0010A0E3 	 mov r1, #0 @ 00000000
 5573 3460 044191E7 	 ldr ra, [r1, ra, lsl #2]
 5574              	@ SP      P23
 5575 3464 5C408AE5 	 str ra, [rp, #+92] @ 0000005C
 5576              	@ LKG     K200 G205
 5577 3468 34439BE5 	 ldr ra, [rg, #+820] @ 00000334
 5578 346c 321EA0E3 	 mov r1, #800 @ 00000320
 5579 3470 044191E7 	 ldr ra, [r1, ra, lsl #2]
 5580              	@ SP      P24
 5581 3474 60408AE5 	 str ra, [rp, #+96] @ 00000060
 5582              	@ LKG     K0 G253
 5583 3478 F4439BE5 	 ldr ra, [rg, #+1012] @ 000003F4
 5584 347c 0010A0E3 	 mov r1, #0 @ 00000000
 5585 3480 044191E7 	 ldr ra, [r1, ra, lsl #2]
 5586              	@ SP      P25
 5587 3484 64408AE5 	 str ra, [rp, #+100] @ 00000064
 5588              	@ LKG     K0 G253
 5589 3488 F4439BE5 	 ldr ra, [rg, #+1012] @ 000003F4
 5590 348c 0010A0E3 	 mov r1, #0 @ 00000000
 5591 3490 044191E7 	 ldr ra, [r1, ra, lsl #2]
 5592              	@ SP      P26
 5593 3494 68408AE5 	 str ra, [rp, #+104] @ 00000068
 5594              	@ LKG     K200 G253
 5595 3498 F4439BE5 	 ldr ra, [rg, #+1012] @ 000003F4
 5596 349c 321EA0E3 	 mov r1, #800 @ 00000320
ARM GAS  temps/cmpltest.s 			page 100


 5597 34a0 044191E7 	 ldr ra, [r1, ra, lsl #2]
 5598              	@ SP      P27
 5599 34a4 6C408AE5 	 str ra, [rp, #+108] @ 0000006C
 5600              	@ L       K33400
 5601 34a8 9E4FA0E3 	 mov ra, #632 @ 00000278
 5602 34ac 024984E3 	 orr ra, ra, #32768 @ 00008000
 5603              	@ SP      P28
 5604 34b0 70408AE5 	 str ra, [rp, #+112] @ 00000070
 5605              	@ LKG     K0 G205
 5606 34b4 34439BE5 	 ldr ra, [rg, #+820] @ 00000334
 5607 34b8 0010A0E3 	 mov r1, #0 @ 00000000
 5608 34bc 044191E7 	 ldr ra, [r1, ra, lsl #2]
 5609              	@ ATB
 5610 34c0 0450A0E1 	 mov rb, ra
 5611              	@ LF      L23
 5612 34c4 98404FE2 	 adrl ra, LA23
 5612      2E4C44E2 
 5613              	@ K       P19
 5614 34cc 4C208AE2 	 add r2, rp, #76 @ 0000004C
 5615 34d0 0410A0E1 	 mov r1, ra
 5616 34d4 0540A0E1 	 mov ra, rb
 5617 34d8 0FE0A0E1 	 mov lr, pc
 5618 34dc 01F0A0E1 	 mov pc, r1
 5619              	@ LP      P3
 5620 34e0 0C409AE5 	 ldr ra, [rp, #+12] @ 0000000C
 5621              	@ AP      P3
 5622 34e4 0C109AE5 	 ldr r1, [rp, #+12] @ 0000000C
 5623 34e8 014084E0 	 add ra, ra, r1
 5624              	@ ATBLP   P3
 5625 34ec 0450A0E1 	 mov rb, ra
 5626 34f0 0C409AE5 	 ldr ra, [rp, #+12] @ 0000000C
 5627              	@ DIV
 5628 34f4 0400A0E1 	 mov r0, ra
 5629 34f8 0510A0E1 	 mov r1, rb
 5630 34fc 00209FE5 	 ldr r2, [pc]
 5631 3500 0FF0A0E1 	 mov pc, pc
 5632 3504 00000000 	 .long divrem
 5633 3508 0FE0A0E1 	 mov lr, pc
 5634 350c 02F0A0E1 	 mov pc, r2
 5635 3510 0040A0E1 	 mov ra, r0
 5636              	@ ATB
 5637 3514 0450A0E1 	 mov rb, ra
 5638              	@ LF      L23
 5639 3518 EC404FE2 	 adrl ra, LA23
 5639      2E4C44E2 
 5640              	@ ADD
 5641 3520 044085E0 	 add ra, rb, ra
 5642              	@ S       K2
 5643 3524 024044E2 	 sub ra, ra, #2 @ 00000002
 5644              	@ SP      P29
 5645 3528 74408AE5 	 str ra, [rp, #+116] @ 00000074
 5646              	@ L       K1
 5647 352c 0140A0E3 	 mov ra, #1 @ 00000001
 5648              	@ SP      P23
 5649 3530 5C408AE5 	 str ra, [rp, #+92] @ 0000005C
 5650              	@ SP      P24
 5651 3534 60408AE5 	 str ra, [rp, #+96] @ 00000060
ARM GAS  temps/cmpltest.s 			page 101


 5652              	@ SP      P25
 5653 3538 64408AE5 	 str ra, [rp, #+100] @ 00000064
 5654              	@ SP      P26
 5655 353c 68408AE5 	 str ra, [rp, #+104] @ 00000068
 5656              	@ SP      P27
 5657 3540 6C408AE5 	 str ra, [rp, #+108] @ 0000006C
 5658              	@ L       K6
 5659 3544 0640A0E3 	 mov ra, #6 @ 00000006
 5660              	@ SP      P28
 5661 3548 70408AE5 	 str ra, [rp, #+112] @ 00000070
 5662              	@ L       K1
 5663 354c 0140A0E3 	 mov ra, #1 @ 00000001
 5664              	@ ATB
 5665 3550 0450A0E1 	 mov rb, ra
 5666              	@ LP      P29
 5667 3554 74409AE5 	 ldr ra, [rp, #+116] @ 00000074
 5668              	@ K       P19
 5669 3558 4C208AE2 	 add r2, rp, #76 @ 0000004C
 5670 355c 0410A0E1 	 mov r1, ra
 5671 3560 0540A0E1 	 mov ra, rb
 5672 3564 0FE0A0E1 	 mov lr, pc
 5673 3568 01F0A0E1 	 mov pc, r1
 5674              	@ L       K300
 5675 356c 4B4FA0E3 	 mov ra, #300 @ 0000012C
 5676              	@ SG      G203
 5677 3570 2C438BE5 	 str ra, [rg, #+812] @ 0000032C
 5678              	@ L       K105
 5679 3574 6940A0E3 	 mov ra, #105 @ 00000069
 5680              	@ SG      G200
 5681 3578 20438BE5 	 str ra, [rg, #+800] @ 00000320
 5682              	@ A       K5
 5683 357c 054084E2 	 add ra, ra, #5 @ 00000005
 5684              	@ A       K6
 5685 3580 064084E2 	 add ra, ra, #6 @ 00000006
 5686              	@ ATB
 5687 3584 0450A0E1 	 mov rb, ra
 5688              	@ L       K116
 5689 3588 7440A0E3 	 mov ra, #116 @ 00000074
 5690              	@ SP      P23
 5691 358c 5C408AE5 	 str ra, [rp, #+92] @ 0000005C
 5692              	@ XCH
 5693 3590 0410A0E1 	 mov r1, ra
 5694 3594 0540A0E1 	 mov ra, rb
 5695 3598 0150A0E1 	 mov rb, r1
 5696              	@ KPG     P19 G208
 5697 359c 40139BE5 	 ldr r1, [rg, #+832] @ 00000340
 5698 35a0 4C208AE2 	 add r2, rp, #76 @ 0000004C
 5699 35a4 0FE0A0E1 	 mov lr, pc
 5700 35a8 01F0A0E1 	 mov pc, r1
 5701              	@ LG      G200
 5702 35ac 20439BE5 	 ldr ra, [rg, #+800] @ 00000320
 5703              	@ A       K2
 5704 35b0 024084E2 	 add ra, ra, #2 @ 00000002
 5705              	@ A       K3
 5706 35b4 034084E2 	 add ra, ra, #3 @ 00000003
 5707              	@ A       K6
 5708 35b8 064084E2 	 add ra, ra, #6 @ 00000006
ARM GAS  temps/cmpltest.s 			page 102


 5709              	@ ATB
 5710 35bc 0450A0E1 	 mov rb, ra
 5711              	@ L       K116
 5712 35c0 7440A0E3 	 mov ra, #116 @ 00000074
 5713              	@ SP      P23
 5714 35c4 5C408AE5 	 str ra, [rp, #+92] @ 0000005C
 5715              	@ XCH
 5716 35c8 0410A0E1 	 mov r1, ra
 5717 35cc 0540A0E1 	 mov ra, rb
 5718 35d0 0150A0E1 	 mov rb, r1
 5719              	@ KPG     P19 G208
 5720 35d4 40139BE5 	 ldr r1, [rg, #+832] @ 00000340
 5721 35d8 4C208AE2 	 add r2, rp, #76 @ 0000004C
 5722 35dc 0FE0A0E1 	 mov lr, pc
 5723 35e0 01F0A0E1 	 mov pc, r1
 5724              	@ LG      G200
 5725 35e4 20439BE5 	 ldr ra, [rg, #+800] @ 00000320
 5726              	@ A       K11
 5727 35e8 0B4084E2 	 add ra, ra, #11 @ 0000000B
 5728              	@ ATB
 5729 35ec 0450A0E1 	 mov rb, ra
 5730              	@ L       K116
 5731 35f0 7440A0E3 	 mov ra, #116 @ 00000074
 5732              	@ SP      P23
 5733 35f4 5C408AE5 	 str ra, [rp, #+92] @ 0000005C
 5734              	@ XCH
 5735 35f8 0410A0E1 	 mov r1, ra
 5736 35fc 0540A0E1 	 mov ra, rb
 5737 3600 0150A0E1 	 mov rb, r1
 5738              	@ KPG     P19 G208
 5739 3604 40139BE5 	 ldr r1, [rg, #+832] @ 00000340
 5740 3608 4C208AE2 	 add r2, rp, #76 @ 0000004C
 5741 360c 0FE0A0E1 	 mov lr, pc
 5742 3610 01F0A0E1 	 mov pc, r1
 5743              	@ LG      G200
 5744 3614 20439BE5 	 ldr ra, [rg, #+800] @ 00000320
 5745              	@ S       K104
 5746 3618 684044E2 	 sub ra, ra, #104 @ 00000068
 5747              	@ ATB
 5748 361c 0450A0E1 	 mov rb, ra
 5749              	@ L       K1
 5750 3620 0140A0E3 	 mov ra, #1 @ 00000001
 5751              	@ SP      P23
 5752 3624 5C408AE5 	 str ra, [rp, #+92] @ 0000005C
 5753              	@ XCH
 5754 3628 0410A0E1 	 mov r1, ra
 5755 362c 0540A0E1 	 mov ra, rb
 5756 3630 0150A0E1 	 mov rb, r1
 5757              	@ KPG     P19 G208
 5758 3634 40139BE5 	 ldr r1, [rg, #+832] @ 00000340
 5759 3638 4C208AE2 	 add r2, rp, #76 @ 0000004C
 5760 363c 0FE0A0E1 	 mov lr, pc
 5761 3640 01F0A0E1 	 mov pc, r1
 5762              	@ L       K2
 5763 3644 0240A0E3 	 mov ra, #2 @ 00000002
 5764              	@ AP      P3
 5765 3648 0C109AE5 	 ldr r1, [rp, #+12] @ 0000000C
ARM GAS  temps/cmpltest.s 			page 103


 5766 364c 014084E0 	 add ra, ra, r1
 5767              	@ SP      P22
 5768 3650 58408AE5 	 str ra, [rp, #+88] @ 00000058
 5769              	@ L       K2
 5770 3654 0240A0E3 	 mov ra, #2 @ 00000002
 5771              	@ AP      P3
 5772 3658 0C109AE5 	 ldr r1, [rp, #+12] @ 0000000C
 5773 365c 014084E0 	 add ra, ra, r1
 5774              	@ ATBLP   P22
 5775 3660 0450A0E1 	 mov rb, ra
 5776 3664 58409AE5 	 ldr ra, [rp, #+88] @ 00000058
 5777              	@ JNE     L193
 5778 3668 040055E1 	 cmp rb, ra
 5779 366c 9C0D001A 	 bne LA193
 5780              	@ L       K99
 5781 3670 6340A0E3 	 mov ra, #99 @ 00000063
 5782              	@ J       L192
 5783 3674 9D0D00EA 	 b LA192
 5784              	 .ltorg
 5785              	
 5786              	@ LAB     L193
 5787              	LA193:
 5788              	@ L       K98
 5789 3678 6240A0E3 	 mov ra, #98 @ 00000062
 5790              	@ LAB     L192
 5791              	LA192:
 5792              	@ ATB
 5793 367c 0450A0E1 	 mov rb, ra
 5794              	@ L       K99
 5795 3680 6340A0E3 	 mov ra, #99 @ 00000063
 5796              	@ SP      P23
 5797 3684 5C408AE5 	 str ra, [rp, #+92] @ 0000005C
 5798              	@ XCH
 5799 3688 0410A0E1 	 mov r1, ra
 5800 368c 0540A0E1 	 mov ra, rb
 5801 3690 0150A0E1 	 mov rb, r1
 5802              	@ KPG     P19 G208
 5803 3694 40139BE5 	 ldr r1, [rg, #+832] @ 00000340
 5804 3698 4C208AE2 	 add r2, rp, #76 @ 0000004C
 5805 369c 0FE0A0E1 	 mov lr, pc
 5806 36a0 01F0A0E1 	 mov pc, r1
 5807              	@ LG      G200
 5808 36a4 20439BE5 	 ldr ra, [rg, #+800] @ 00000320
 5809              	@ A       K1
 5810 36a8 014084E2 	 add ra, ra, #1 @ 00000001
 5811              	@ ATBLG   G200
 5812 36ac 0450A0E1 	 mov rb, ra
 5813 36b0 20439BE5 	 ldr ra, [rg, #+800] @ 00000320
 5814              	@ JLE     L195
 5815 36b4 040055E1 	 cmp rb, ra
 5816 36b8 AF0D00DA 	 ble LA195
 5817              	@ L       K21
 5818 36bc 1540A0E3 	 mov ra, #21 @ 00000015
 5819              	@ J       L194
 5820 36c0 B00D00EA 	 b LA194
 5821              	 .ltorg
 5822              	
ARM GAS  temps/cmpltest.s 			page 104


 5823              	@ LAB     L195
 5824              	LA195:
 5825              	@ L       K22
 5826 36c4 1640A0E3 	 mov ra, #22 @ 00000016
 5827              	@ LAB     L194
 5828              	LA194:
 5829              	@ ATB
 5830 36c8 0450A0E1 	 mov rb, ra
 5831              	@ L       K21
 5832 36cc 1540A0E3 	 mov ra, #21 @ 00000015
 5833              	@ SP      P23
 5834 36d0 5C408AE5 	 str ra, [rp, #+92] @ 0000005C
 5835              	@ XCH
 5836 36d4 0410A0E1 	 mov r1, ra
 5837 36d8 0540A0E1 	 mov ra, rb
 5838 36dc 0150A0E1 	 mov rb, r1
 5839              	@ KPG     P19 G208
 5840 36e0 40139BE5 	 ldr r1, [rg, #+832] @ 00000340
 5841 36e4 4C208AE2 	 add r2, rp, #76 @ 0000004C
 5842 36e8 0FE0A0E1 	 mov lr, pc
 5843 36ec 01F0A0E1 	 mov pc, r1
 5844              	@ LG      G200
 5845 36f0 20439BE5 	 ldr ra, [rg, #+800] @ 00000320
 5846              	@ A       K1
 5847 36f4 014084E2 	 add ra, ra, #1 @ 00000001
 5848              	@ ATBLG   G200
 5849 36f8 0450A0E1 	 mov rb, ra
 5850 36fc 20439BE5 	 ldr ra, [rg, #+800] @ 00000320
 5851              	@ JGE     L197
 5852 3700 040055E1 	 cmp rb, ra
 5853 3704 C20D00AA 	 bge LA197
 5854              	@ L       K31
 5855 3708 1F40A0E3 	 mov ra, #31 @ 0000001F
 5856              	@ J       L196
 5857 370c C30D00EA 	 b LA196
 5858              	 .ltorg
 5859              	
 5860              	@ LAB     L197
 5861              	LA197:
 5862              	@ L       K32
 5863 3710 2040A0E3 	 mov ra, #32 @ 00000020
 5864              	@ LAB     L196
 5865              	LA196:
 5866              	@ ATB
 5867 3714 0450A0E1 	 mov rb, ra
 5868              	@ L       K32
 5869 3718 2040A0E3 	 mov ra, #32 @ 00000020
 5870              	@ SP      P23
 5871 371c 5C408AE5 	 str ra, [rp, #+92] @ 0000005C
 5872              	@ XCH
 5873 3720 0410A0E1 	 mov r1, ra
 5874 3724 0540A0E1 	 mov ra, rb
 5875 3728 0150A0E1 	 mov rb, r1
 5876              	@ KPG     P19 G208
 5877 372c 40139BE5 	 ldr r1, [rg, #+832] @ 00000340
 5878 3730 4C208AE2 	 add r2, rp, #76 @ 0000004C
 5879 3734 0FE0A0E1 	 mov lr, pc
ARM GAS  temps/cmpltest.s 			page 105


 5880 3738 01F0A0E1 	 mov pc, r1
 5881              	@ LG      G200
 5882 373c 20439BE5 	 ldr ra, [rg, #+800] @ 00000320
 5883              	@ ATBL    K105
 5884 3740 0450A0E1 	 mov rb, ra
 5885 3744 6940A0E3 	 mov ra, #105 @ 00000069
 5886              	@ JGR     L199
 5887 3748 040055E1 	 cmp rb, ra
 5888 374c D40D00CA 	 bgt LA199
 5889              	@ L       K41
 5890 3750 2940A0E3 	 mov ra, #41 @ 00000029
 5891              	@ J       L198
 5892 3754 D50D00EA 	 b LA198
 5893              	 .ltorg
 5894              	
 5895              	@ LAB     L199
 5896              	LA199:
 5897              	@ L       K42
 5898 3758 2A40A0E3 	 mov ra, #42 @ 0000002A
 5899              	@ LAB     L198
 5900              	LA198:
 5901              	@ ATB
 5902 375c 0450A0E1 	 mov rb, ra
 5903              	@ L       K41
 5904 3760 2940A0E3 	 mov ra, #41 @ 00000029
 5905              	@ SP      P23
 5906 3764 5C408AE5 	 str ra, [rp, #+92] @ 0000005C
 5907              	@ XCH
 5908 3768 0410A0E1 	 mov r1, ra
 5909 376c 0540A0E1 	 mov ra, rb
 5910 3770 0150A0E1 	 mov rb, r1
 5911              	@ KPG     P19 G208
 5912 3774 40139BE5 	 ldr r1, [rg, #+832] @ 00000340
 5913 3778 4C208AE2 	 add r2, rp, #76 @ 0000004C
 5914 377c 0FE0A0E1 	 mov lr, pc
 5915 3780 01F0A0E1 	 mov pc, r1
 5916              	@ LG      G200
 5917 3784 20439BE5 	 ldr ra, [rg, #+800] @ 00000320
 5918              	@ ATBL    K105
 5919 3788 0450A0E1 	 mov rb, ra
 5920 378c 6940A0E3 	 mov ra, #105 @ 00000069
 5921              	@ JLS     L201
 5922 3790 040055E1 	 cmp rb, ra
 5923 3794 E60D00BA 	 blt LA201
 5924              	@ L       K51
 5925 3798 3340A0E3 	 mov ra, #51 @ 00000033
 5926              	@ J       L200
 5927 379c E70D00EA 	 b LA200
 5928              	 .ltorg
 5929              	
 5930              	@ LAB     L201
 5931              	LA201:
 5932              	@ L       K52
 5933 37a0 3440A0E3 	 mov ra, #52 @ 00000034
 5934              	@ LAB     L200
 5935              	LA200:
 5936              	@ ATB
ARM GAS  temps/cmpltest.s 			page 106


 5937 37a4 0450A0E1 	 mov rb, ra
 5938              	@ L       K51
 5939 37a8 3340A0E3 	 mov ra, #51 @ 00000033
 5940              	@ SP      P23
 5941 37ac 5C408AE5 	 str ra, [rp, #+92] @ 0000005C
 5942              	@ XCH
 5943 37b0 0410A0E1 	 mov r1, ra
 5944 37b4 0540A0E1 	 mov ra, rb
 5945 37b8 0150A0E1 	 mov rb, r1
 5946              	@ KPG     P19 G208
 5947 37bc 40139BE5 	 ldr r1, [rg, #+832] @ 00000340
 5948 37c0 4C208AE2 	 add r2, rp, #76 @ 0000004C
 5949 37c4 0FE0A0E1 	 mov lr, pc
 5950 37c8 01F0A0E1 	 mov pc, r1
 5951              	@ L       K400
 5952 37cc 194EA0E3 	 mov ra, #400 @ 00000190
 5953              	@ SG      G203
 5954 37d0 2C438BE5 	 str ra, [rg, #+812] @ 0000032C
 5955              	@ L       K0
 5956 37d4 0040A0E3 	 mov ra, #0 @ 00000000
 5957              	@ SP      P3
 5958 37d8 0C408AE5 	 str ra, [rp, #+12] @ 0000000C
 5959              	@ L       K1
 5960 37dc 0140A0E3 	 mov ra, #1 @ 00000001
 5961              	@ SP      P4
 5962 37e0 10408AE5 	 str ra, [rp, #+16] @ 00000010
 5963              	@ L       K2
 5964 37e4 0240A0E3 	 mov ra, #2 @ 00000002
 5965              	@ SP      P5
 5966 37e8 14408AE5 	 str ra, [rp, #+20] @ 00000014
 5967              	@ L       K0
 5968 37ec 0040A0E3 	 mov ra, #0 @ 00000000
 5969              	@ SP      P23
 5970 37f0 5C408AE5 	 str ra, [rp, #+92] @ 0000005C
 5971              	@ LP      P3
 5972 37f4 0C409AE5 	 ldr ra, [rp, #+12] @ 0000000C
 5973              	@ KPG     P19 G208
 5974 37f8 40139BE5 	 ldr r1, [rg, #+832] @ 00000340
 5975 37fc 4C208AE2 	 add r2, rp, #76 @ 0000004C
 5976 3800 0FE0A0E1 	 mov lr, pc
 5977 3804 01F0A0E1 	 mov pc, r1
 5978              	@ L       K1
 5979 3808 0140A0E3 	 mov ra, #1 @ 00000001
 5980              	@ SP      P23
 5981 380c 5C408AE5 	 str ra, [rp, #+92] @ 0000005C
 5982              	@ LP      P4
 5983 3810 10409AE5 	 ldr ra, [rp, #+16] @ 00000010
 5984              	@ KPG     P19 G208
 5985 3814 40139BE5 	 ldr r1, [rg, #+832] @ 00000340
 5986 3818 4C208AE2 	 add r2, rp, #76 @ 0000004C
 5987 381c 0FE0A0E1 	 mov lr, pc
 5988 3820 01F0A0E1 	 mov pc, r1
 5989              	@ L       K2
 5990 3824 0240A0E3 	 mov ra, #2 @ 00000002
 5991              	@ SP      P23
 5992 3828 5C408AE5 	 str ra, [rp, #+92] @ 0000005C
 5993              	@ LP      P5
ARM GAS  temps/cmpltest.s 			page 107


 5994 382c 14409AE5 	 ldr ra, [rp, #+20] @ 00000014
 5995              	@ KPG     P19 G208
 5996 3830 40139BE5 	 ldr r1, [rg, #+832] @ 00000340
 5997 3834 4C208AE2 	 add r2, rp, #76 @ 0000004C
 5998 3838 0FE0A0E1 	 mov lr, pc
 5999 383c 01F0A0E1 	 mov pc, r1
 6000              	@ L       K101
 6001 3840 6540A0E3 	 mov ra, #101 @ 00000065
 6002              	@ SG      G200
 6003 3844 20438BE5 	 str ra, [rg, #+800] @ 00000320
 6004              	@ L       K102
 6005 3848 6640A0E3 	 mov ra, #102 @ 00000066
 6006              	@ SG      G401
 6007 384c 44468BE5 	 str ra, [rg, #+1604] @ 00000644
 6008              	@ L       K103
 6009 3850 6740A0E3 	 mov ra, #103 @ 00000067
 6010              	@ SG      G602
 6011 3854 68498BE5 	 str ra, [rg, #+2408] @ 00000968
 6012              	@ L       K11
 6013 3858 0B40A0E3 	 mov ra, #11 @ 0000000B
 6014              	@ SG      G250
 6015 385c E8438BE5 	 str ra, [rg, #+1000] @ 000003E8
 6016              	@ L       K12
 6017 3860 0C40A0E3 	 mov ra, #12 @ 0000000C
 6018              	@ SG      G251
 6019 3864 EC438BE5 	 str ra, [rg, #+1004] @ 000003EC
 6020              	@ L       K13
 6021 3868 0D40A0E3 	 mov ra, #13 @ 0000000D
 6022              	@ SG      G252
 6023 386c F0438BE5 	 str ra, [rg, #+1008] @ 000003F0
 6024              	@ L       K1
 6025 3870 0140A0E3 	 mov ra, #1 @ 00000001
 6026              	@ AP      P3
 6027 3874 0C109AE5 	 ldr r1, [rp, #+12] @ 0000000C
 6028 3878 014084E0 	 add ra, ra, r1
 6029              	@ ATB
 6030 387c 0450A0E1 	 mov rb, ra
 6031              	@ L       K1
 6032 3880 0140A0E3 	 mov ra, #1 @ 00000001
 6033              	@ SP      P23
 6034 3884 5C408AE5 	 str ra, [rp, #+92] @ 0000005C
 6035              	@ XCH
 6036 3888 0410A0E1 	 mov r1, ra
 6037 388c 0540A0E1 	 mov ra, rb
 6038 3890 0150A0E1 	 mov rb, r1
 6039              	@ KPG     P19 G208
 6040 3894 40139BE5 	 ldr r1, [rg, #+832] @ 00000340
 6041 3898 4C208AE2 	 add r2, rp, #76 @ 0000004C
 6042 389c 0FE0A0E1 	 mov lr, pc
 6043 38a0 01F0A0E1 	 mov pc, r1
 6044              	@ LG      G200
 6045 38a4 20439BE5 	 ldr ra, [rg, #+800] @ 00000320
 6046              	@ A       K1
 6047 38a8 014084E2 	 add ra, ra, #1 @ 00000001
 6048              	@ ATB
 6049 38ac 0450A0E1 	 mov rb, ra
 6050              	@ L       K102
ARM GAS  temps/cmpltest.s 			page 108


 6051 38b0 6640A0E3 	 mov ra, #102 @ 00000066
 6052              	@ SP      P23
 6053 38b4 5C408AE5 	 str ra, [rp, #+92] @ 0000005C
 6054              	@ XCH
 6055 38b8 0410A0E1 	 mov r1, ra
 6056 38bc 0540A0E1 	 mov ra, rb
 6057 38c0 0150A0E1 	 mov rb, r1
 6058              	@ KPG     P19 G208
 6059 38c4 40139BE5 	 ldr r1, [rg, #+832] @ 00000340
 6060 38c8 4C208AE2 	 add r2, rp, #76 @ 0000004C
 6061 38cc 0FE0A0E1 	 mov lr, pc
 6062 38d0 01F0A0E1 	 mov pc, r1
 6063              	@ LG      G250
 6064 38d4 E8439BE5 	 ldr ra, [rg, #+1000] @ 000003E8
 6065              	@ A       K1
 6066 38d8 014084E2 	 add ra, ra, #1 @ 00000001
 6067              	@ ATB
 6068 38dc 0450A0E1 	 mov rb, ra
 6069              	@ L       K12
 6070 38e0 0C40A0E3 	 mov ra, #12 @ 0000000C
 6071              	@ SP      P23
 6072 38e4 5C408AE5 	 str ra, [rp, #+92] @ 0000005C
 6073              	@ XCH
 6074 38e8 0410A0E1 	 mov r1, ra
 6075 38ec 0540A0E1 	 mov ra, rb
 6076 38f0 0150A0E1 	 mov rb, r1
 6077              	@ KPG     P19 G208
 6078 38f4 40139BE5 	 ldr r1, [rg, #+832] @ 00000340
 6079 38f8 4C208AE2 	 add r2, rp, #76 @ 0000004C
 6080 38fc 0FE0A0E1 	 mov lr, pc
 6081 3900 01F0A0E1 	 mov pc, r1
 6082              	@ LLG     G250
 6083 3904 FA40A0E3 	 mov ra, #250 @ 000000FA
 6084 3908 2B4184E0 	 add ra, ra, rg, lsr #2
 6085              	@ ATBL    K2
 6086 390c 0450A0E1 	 mov rb, ra
 6087 3910 0240A0E3 	 mov ra, #2 @ 00000002
 6088              	@ MUL
 6089 3914 950404E0 	 mul ra, rb, ra
 6090              	@ ATBL    K2
 6091 3918 0450A0E1 	 mov rb, ra
 6092 391c 0240A0E3 	 mov ra, #2 @ 00000002
 6093              	@ DIV
 6094 3920 0400A0E1 	 mov r0, ra
 6095 3924 0510A0E1 	 mov r1, rb
 6096 3928 00209FE5 	 ldr r2, [pc]
 6097 392c 0FF0A0E1 	 mov pc, pc
 6098 3930 00000000 	 .long divrem
 6099 3934 0FE0A0E1 	 mov lr, pc
 6100 3938 02F0A0E1 	 mov pc, r2
 6101 393c 0040A0E1 	 mov ra, r0
 6102              	@ AG      G200
 6103 3940 20139BE5 	 ldr r1, [rg, #+800] @ 00000320
 6104 3944 014084E0 	 add ra, ra, r1
 6105              	@ S       K101
 6106 3948 654044E2 	 sub ra, ra, #101 @ 00000065
 6107              	@ RV
ARM GAS  temps/cmpltest.s 			page 109


 6108 394c 041084E0 	 add r1, ra, ra
 6109 3950 014091E7 	 ldr ra, [r1, r1]
 6110              	@ ATB
 6111 3954 0450A0E1 	 mov rb, ra
 6112              	@ L       K11
 6113 3958 0B40A0E3 	 mov ra, #11 @ 0000000B
 6114              	@ SP      P23
 6115 395c 5C408AE5 	 str ra, [rp, #+92] @ 0000005C
 6116              	@ XCH
 6117 3960 0410A0E1 	 mov r1, ra
 6118 3964 0540A0E1 	 mov ra, rb
 6119 3968 0150A0E1 	 mov rb, r1
 6120              	@ KPG     P19 G208
 6121 396c 40139BE5 	 ldr r1, [rg, #+832] @ 00000340
 6122 3970 4C208AE2 	 add r2, rp, #76 @ 0000004C
 6123 3974 0FE0A0E1 	 mov lr, pc
 6124 3978 01F0A0E1 	 mov pc, r1
 6125              	@ LLG     G200
 6126 397c C840A0E3 	 mov ra, #200 @ 000000C8
 6127 3980 2B4184E0 	 add ra, ra, rg, lsr #2
 6128              	@ SG      G250
 6129 3984 E8438BE5 	 str ra, [rg, #+1000] @ 000003E8
 6130              	@ L       K101
 6131 3988 6540A0E3 	 mov ra, #101 @ 00000065
 6132              	@ SP      P23
 6133 398c 5C408AE5 	 str ra, [rp, #+92] @ 0000005C
 6134              	@ LKG     K0 G250
 6135 3990 E8439BE5 	 ldr ra, [rg, #+1000] @ 000003E8
 6136 3994 0010A0E3 	 mov r1, #0 @ 00000000
 6137 3998 044191E7 	 ldr ra, [r1, ra, lsl #2]
 6138              	@ KPG     P19 G208
 6139 399c 40139BE5 	 ldr r1, [rg, #+832] @ 00000340
 6140 39a0 4C208AE2 	 add r2, rp, #76 @ 0000004C
 6141 39a4 0FE0A0E1 	 mov lr, pc
 6142 39a8 01F0A0E1 	 mov pc, r1
 6143              	@ LLG     G401
 6144 39ac 9140A0E3 	 mov ra, #145 @ 00000091
 6145 39b0 014C84E3 	 orr ra, ra, #256 @ 00000100
 6146 39b4 2B4184E0 	 add ra, ra, rg, lsr #2
 6147              	@ SG      G251
 6148 39b8 EC438BE5 	 str ra, [rg, #+1004] @ 000003EC
 6149              	@ LLG     G251
 6150 39bc FB40A0E3 	 mov ra, #251 @ 000000FB
 6151 39c0 2B4184E0 	 add ra, ra, rg, lsr #2
 6152              	@ SG      G250
 6153 39c4 E8438BE5 	 str ra, [rg, #+1000] @ 000003E8
 6154              	@ LKG     K0 G250
 6155 39c8 E8439BE5 	 ldr ra, [rg, #+1000] @ 000003E8
 6156 39cc 0010A0E3 	 mov r1, #0 @ 00000000
 6157 39d0 044191E7 	 ldr ra, [r1, ra, lsl #2]
 6158              	@ RV
 6159 39d4 041084E0 	 add r1, ra, ra
 6160 39d8 014091E7 	 ldr ra, [r1, r1]
 6161              	@ ATB
 6162 39dc 0450A0E1 	 mov rb, ra
 6163              	@ L       K102
 6164 39e0 6640A0E3 	 mov ra, #102 @ 00000066
ARM GAS  temps/cmpltest.s 			page 110


 6165              	@ SP      P23
 6166 39e4 5C408AE5 	 str ra, [rp, #+92] @ 0000005C
 6167              	@ XCH
 6168 39e8 0410A0E1 	 mov r1, ra
 6169 39ec 0540A0E1 	 mov ra, rb
 6170 39f0 0150A0E1 	 mov rb, r1
 6171              	@ KPG     P19 G208
 6172 39f4 40139BE5 	 ldr r1, [rg, #+832] @ 00000340
 6173 39f8 4C208AE2 	 add r2, rp, #76 @ 0000004C
 6174 39fc 0FE0A0E1 	 mov lr, pc
 6175 3a00 01F0A0E1 	 mov pc, r1
 6176              	@ LG      G253
 6177 3a04 F4439BE5 	 ldr ra, [rg, #+1012] @ 000003F4
 6178              	@ A       K1
 6179 3a08 014084E2 	 add ra, ra, #1 @ 00000001
 6180              	@ SKG     K0 G253
 6181 3a0c F4139BE5 	 ldr r1, [rg, #+1012] @ 000003F4
 6182 3a10 0020A0E3 	 mov r2, #0 @ 00000000
 6183 3a14 014182E7 	 str ra, [r2, r1, lsl #2]
 6184              	@ LLG     G602
 6185 3a18 5A40A0E3 	 mov ra, #90 @ 0000005A
 6186 3a1c 024C84E3 	 orr ra, ra, #512 @ 00000200
 6187 3a20 2B4184E0 	 add ra, ra, rg, lsr #2
 6188              	@ ATBLG   G253
 6189 3a24 0450A0E1 	 mov rb, ra
 6190 3a28 F4439BE5 	 ldr ra, [rg, #+1012] @ 000003F4
 6191              	@ STK     K1
 6192 3a2c 0410A0E3 	 mov r1, #4 @ 00000004
 6193 3a30 045181E7 	 str rb, [r1, ra, lsl #2]
 6194              	@ LP      P4
 6195 3a34 10409AE5 	 ldr ra, [rp, #+16] @ 00000010
 6196              	@ ATBLP   P5
 6197 3a38 0450A0E1 	 mov rb, ra
 6198 3a3c 14409AE5 	 ldr ra, [rp, #+20] @ 00000014
 6199              	@ MUL
 6200 3a40 950404E0 	 mul ra, rb, ra
 6201              	@ SP      P22
 6202 3a44 58408AE5 	 str ra, [rp, #+88] @ 00000058
 6203              	@ LKG     K0 G253
 6204 3a48 F4439BE5 	 ldr ra, [rg, #+1012] @ 000003F4
 6205 3a4c 0010A0E3 	 mov r1, #0 @ 00000000
 6206 3a50 044191E7 	 ldr ra, [r1, ra, lsl #2]
 6207              	@ RV
 6208 3a54 041084E0 	 add r1, ra, ra
 6209 3a58 014091E7 	 ldr ra, [r1, r1]
 6210              	@ RV
 6211 3a5c 041084E0 	 add r1, ra, ra
 6212 3a60 014091E7 	 ldr ra, [r1, r1]
 6213              	@ AP      P22
 6214 3a64 58109AE5 	 ldr r1, [rp, #+88] @ 00000058
 6215 3a68 014084E0 	 add ra, ra, r1
 6216              	@ S       K2
 6217 3a6c 024044E2 	 sub ra, ra, #2 @ 00000002
 6218              	@ ATB
 6219 3a70 0450A0E1 	 mov rb, ra
 6220              	@ L       K103
 6221 3a74 6740A0E3 	 mov ra, #103 @ 00000067
ARM GAS  temps/cmpltest.s 			page 111


 6222              	@ SP      P23
 6223 3a78 5C408AE5 	 str ra, [rp, #+92] @ 0000005C
 6224              	@ XCH
 6225 3a7c 0410A0E1 	 mov r1, ra
 6226 3a80 0540A0E1 	 mov ra, rb
 6227 3a84 0150A0E1 	 mov rb, r1
 6228              	@ KPG     P19 G208
 6229 3a88 40139BE5 	 ldr r1, [rg, #+832] @ 00000340
 6230 3a8c 4C208AE2 	 add r2, rp, #76 @ 0000004C
 6231 3a90 0FE0A0E1 	 mov lr, pc
 6232 3a94 01F0A0E1 	 mov pc, r1
 6233              	@ LP      P4
 6234 3a98 10409AE5 	 ldr ra, [rp, #+16] @ 00000010
 6235              	@ ATBLP   P5
 6236 3a9c 0450A0E1 	 mov rb, ra
 6237 3aa0 14409AE5 	 ldr ra, [rp, #+20] @ 00000014
 6238              	@ MUL
 6239 3aa4 950404E0 	 mul ra, rb, ra
 6240              	@ SP      P22
 6241 3aa8 58408AE5 	 str ra, [rp, #+88] @ 00000058
 6242              	@ LKG     K1 G253
 6243 3aac F4439BE5 	 ldr ra, [rg, #+1012] @ 000003F4
 6244 3ab0 0410A0E3 	 mov r1, #4 @ 00000004
 6245 3ab4 044191E7 	 ldr ra, [r1, ra, lsl #2]
 6246              	@ RV
 6247 3ab8 041084E0 	 add r1, ra, ra
 6248 3abc 014091E7 	 ldr ra, [r1, r1]
 6249              	@ AP      P22
 6250 3ac0 58109AE5 	 ldr r1, [rp, #+88] @ 00000058
 6251 3ac4 014084E0 	 add ra, ra, r1
 6252              	@ S       K2
 6253 3ac8 024044E2 	 sub ra, ra, #2 @ 00000002
 6254              	@ ATB
 6255 3acc 0450A0E1 	 mov rb, ra
 6256              	@ L       K103
 6257 3ad0 6740A0E3 	 mov ra, #103 @ 00000067
 6258              	@ SP      P23
 6259 3ad4 5C408AE5 	 str ra, [rp, #+92] @ 0000005C
 6260              	@ XCH
 6261 3ad8 0410A0E1 	 mov r1, ra
 6262 3adc 0540A0E1 	 mov ra, rb
 6263 3ae0 0150A0E1 	 mov rb, r1
 6264              	@ KPG     P19 G208
 6265 3ae4 40139BE5 	 ldr r1, [rg, #+832] @ 00000340
 6266 3ae8 4C208AE2 	 add r2, rp, #76 @ 0000004C
 6267 3aec 0FE0A0E1 	 mov lr, pc
 6268 3af0 01F0A0E1 	 mov pc, r1
 6269              	@ L       K123
 6270 3af4 7B40A0E3 	 mov ra, #123 @ 0000007B
 6271              	@ SP      P26
 6272 3af8 68408AE5 	 str ra, [rp, #+104] @ 00000068
 6273              	@ KPG     P22 G208
 6274 3afc 40139BE5 	 ldr r1, [rg, #+832] @ 00000340
 6275 3b00 58208AE2 	 add r2, rp, #88 @ 00000058
 6276 3b04 0FE0A0E1 	 mov lr, pc
 6277 3b08 01F0A0E1 	 mov pc, r1
 6278              	@ SP      P22
ARM GAS  temps/cmpltest.s 			page 112


 6279 3b0c 58408AE5 	 str ra, [rp, #+88] @ 00000058
 6280              	@ L       K123
 6281 3b10 7B40A0E3 	 mov ra, #123 @ 0000007B
 6282              	@ SP      P27
 6283 3b14 6C408AE5 	 str ra, [rp, #+108] @ 0000006C
 6284              	@ KPG     P23 G208
 6285 3b18 40139BE5 	 ldr r1, [rg, #+832] @ 00000340
 6286 3b1c 5C208AE2 	 add r2, rp, #92 @ 0000005C
 6287 3b20 0FE0A0E1 	 mov lr, pc
 6288 3b24 01F0A0E1 	 mov pc, r1
 6289              	@ SP      P23
 6290 3b28 5C408AE5 	 str ra, [rp, #+92] @ 0000005C
 6291              	@ LP      P22
 6292 3b2c 58409AE5 	 ldr ra, [rp, #+88] @ 00000058
 6293              	@ KPG     P19 G208
 6294 3b30 40139BE5 	 ldr r1, [rg, #+832] @ 00000340
 6295 3b34 4C208AE2 	 add r2, rp, #76 @ 0000004C
 6296 3b38 0FE0A0E1 	 mov lr, pc
 6297 3b3c 01F0A0E1 	 mov pc, r1
 6298              	@ L       K500
 6299 3b40 7D4FA0E3 	 mov ra, #500 @ 000001F4
 6300              	@ SG      G203
 6301 3b44 2C438BE5 	 str ra, [rg, #+812] @ 0000032C
 6302              	@ L       K100
 6303 3b48 6440A0E3 	 mov ra, #100 @ 00000064
 6304              	@ SP      P3
 6305 3b4c 0C408AE5 	 str ra, [rp, #+12] @ 0000000C
 6306              	@ ATB
 6307 3b50 0450A0E1 	 mov rb, ra
 6308              	@ MUL
 6309 3b54 950404E0 	 mul ra, rb, ra
 6310              	@ ATB
 6311 3b58 0450A0E1 	 mov rb, ra
 6312              	@ L       K10000
 6313 3b5c 714EA0E3 	 mov ra, #1808 @ 00000710
 6314 3b60 024A84E3 	 orr ra, ra, #8192 @ 00002000
 6315              	@ SP      P23
 6316 3b64 5C408AE5 	 str ra, [rp, #+92] @ 0000005C
 6317              	@ XCH
 6318 3b68 0410A0E1 	 mov r1, ra
 6319 3b6c 0540A0E1 	 mov ra, rb
 6320 3b70 0150A0E1 	 mov rb, r1
 6321              	@ KPG     P19 G208
 6322 3b74 40139BE5 	 ldr r1, [rg, #+832] @ 00000340
 6323 3b78 4C208AE2 	 add r2, rp, #76 @ 0000004C
 6324 3b7c 0FE0A0E1 	 mov lr, pc
 6325 3b80 01F0A0E1 	 mov pc, r1
 6326              	@ LP      P3
 6327 3b84 0C409AE5 	 ldr ra, [rp, #+12] @ 0000000C
 6328              	@ ATBLP   P3
 6329 3b88 0450A0E1 	 mov rb, ra
 6330 3b8c 0C409AE5 	 ldr ra, [rp, #+12] @ 0000000C
 6331              	@ MUL
 6332 3b90 950404E0 	 mul ra, rb, ra
 6333              	@ MUL
 6334 3b94 950404E0 	 mul ra, rb, ra
 6335              	@ MUL
ARM GAS  temps/cmpltest.s 			page 113


 6336 3b98 950404E0 	 mul ra, rb, ra
 6337              	@ ATB
 6338 3b9c 0450A0E1 	 mov rb, ra
 6339              	@ LW      M17
 6340 3ba0 A4408FE2 	 adrl ra, MA17
 6340      0F4C84E2 
 6341 3ba8 004094E5 	 ldr ra, [ra]
 6342              	@ SP      P23
 6343 3bac 5C408AE5 	 str ra, [rp, #+92] @ 0000005C
 6344              	@ XCH
 6345 3bb0 0410A0E1 	 mov r1, ra
 6346 3bb4 0540A0E1 	 mov ra, rb
 6347 3bb8 0150A0E1 	 mov rb, r1
 6348              	@ KPG     P19 G208
 6349 3bbc 40139BE5 	 ldr r1, [rg, #+832] @ 00000340
 6350 3bc0 4C208AE2 	 add r2, rp, #76 @ 0000004C
 6351 3bc4 0FE0A0E1 	 mov lr, pc
 6352 3bc8 01F0A0E1 	 mov pc, r1
 6353              	@ LP      P3
 6354 3bcc 0C409AE5 	 ldr ra, [rp, #+12] @ 0000000C
 6355              	@ ATBLP   P3
 6356 3bd0 0450A0E1 	 mov rb, ra
 6357 3bd4 0C409AE5 	 ldr ra, [rp, #+12] @ 0000000C
 6358              	@ MUL
 6359 3bd8 950404E0 	 mul ra, rb, ra
 6360              	@ A       K10000
 6361 3bdc 714E84E2 	 add ra, ra, #1808 @ 00000710
 6362 3be0 024A84E2 	 add ra, ra, #8192 @ 00002000
 6363              	@ ATB
 6364 3be4 0450A0E1 	 mov rb, ra
 6365              	@ L       K20000
 6366 3be8 E24EA0E3 	 mov ra, #3616 @ 00000E20
 6367 3bec 014984E3 	 orr ra, ra, #16384 @ 00004000
 6368              	@ SP      P23
 6369 3bf0 5C408AE5 	 str ra, [rp, #+92] @ 0000005C
 6370              	@ XCH
 6371 3bf4 0410A0E1 	 mov r1, ra
 6372 3bf8 0540A0E1 	 mov ra, rb
 6373 3bfc 0150A0E1 	 mov rb, r1
 6374              	@ KPG     P19 G208
 6375 3c00 40139BE5 	 ldr r1, [rg, #+832] @ 00000340
 6376 3c04 4C208AE2 	 add r2, rp, #76 @ 0000004C
 6377 3c08 0FE0A0E1 	 mov lr, pc
 6378 3c0c 01F0A0E1 	 mov pc, r1
 6379              	@ LP      P3
 6380 3c10 0C409AE5 	 ldr ra, [rp, #+12] @ 0000000C
 6381              	@ ATBLP   P3
 6382 3c14 0450A0E1 	 mov rb, ra
 6383 3c18 0C409AE5 	 ldr ra, [rp, #+12] @ 0000000C
 6384              	@ MUL
 6385 3c1c 950404E0 	 mul ra, rb, ra
 6386              	@ ATB
 6387 3c20 0450A0E1 	 mov rb, ra
 6388              	@ LW      M18
 6389 3c24 24408FE2 	 adrl ra, MA18
 6389      0F4C84E2 
 6390 3c2c 004094E5 	 ldr ra, [ra]
ARM GAS  temps/cmpltest.s 			page 114


 6391              	@ ADD
 6392 3c30 044085E0 	 add ra, rb, ra
 6393              	@ ATB
 6394 3c34 0450A0E1 	 mov rb, ra
 6395              	@ LW      M19
 6396 3c38 14408FE2 	 adrl ra, MA19
 6396      0F4C84E2 
 6397 3c40 004094E5 	 ldr ra, [ra]
 6398              	@ SP      P23
 6399 3c44 5C408AE5 	 str ra, [rp, #+92] @ 0000005C
 6400              	@ XCH
 6401 3c48 0410A0E1 	 mov r1, ra
 6402 3c4c 0540A0E1 	 mov ra, rb
 6403 3c50 0150A0E1 	 mov rb, r1
 6404              	@ KPG     P19 G208
 6405 3c54 40139BE5 	 ldr r1, [rg, #+832] @ 00000340
 6406 3c58 4C208AE2 	 add r2, rp, #76 @ 0000004C
 6407 3c5c 0FE0A0E1 	 mov lr, pc
 6408 3c60 01F0A0E1 	 mov pc, r1
 6409              	@ LP      P3
 6410 3c64 0C409AE5 	 ldr ra, [rp, #+12] @ 0000000C
 6411              	@ ATBLP   P3
 6412 3c68 0450A0E1 	 mov rb, ra
 6413 3c6c 0C409AE5 	 ldr ra, [rp, #+12] @ 0000000C
 6414              	@ MUL
 6415 3c70 950404E0 	 mul ra, rb, ra
 6416              	@ S       K10000
 6417 3c74 714E44E2 	 sub ra, ra, #1808 @ 00000710
 6418 3c78 024A44E2 	 sub ra, ra, #8192 @ 00002000
 6419              	@ ATB
 6420 3c7c 0450A0E1 	 mov rb, ra
 6421              	@ L       K0
 6422 3c80 0040A0E3 	 mov ra, #0 @ 00000000
 6423              	@ SP      P23
 6424 3c84 5C408AE5 	 str ra, [rp, #+92] @ 0000005C
 6425              	@ XCH
 6426 3c88 0410A0E1 	 mov r1, ra
 6427 3c8c 0540A0E1 	 mov ra, rb
 6428 3c90 0150A0E1 	 mov rb, r1
 6429              	@ KPG     P19 G208
 6430 3c94 40139BE5 	 ldr r1, [rg, #+832] @ 00000340
 6431 3c98 4C208AE2 	 add r2, rp, #76 @ 0000004C
 6432 3c9c 0FE0A0E1 	 mov lr, pc
 6433 3ca0 01F0A0E1 	 mov pc, r1
 6434              	@ LP      P3
 6435 3ca4 0C409AE5 	 ldr ra, [rp, #+12] @ 0000000C
 6436              	@ ATBLP   P3
 6437 3ca8 0450A0E1 	 mov rb, ra
 6438 3cac 0C409AE5 	 ldr ra, [rp, #+12] @ 0000000C
 6439              	@ MUL
 6440 3cb0 950404E0 	 mul ra, rb, ra
 6441              	@ ATB
 6442 3cb4 0450A0E1 	 mov rb, ra
 6443              	@ LW      M20
 6444 3cb8 98408FE2 	 adrl ra, MA20
 6444      0E4C84E2 
 6445 3cc0 004094E5 	 ldr ra, [ra]
ARM GAS  temps/cmpltest.s 			page 115


 6446              	@ SUB
 6447 3cc4 044045E0 	 sub ra, rb, ra
 6448              	@ ATB
 6449 3cc8 0450A0E1 	 mov rb, ra
 6450              	@ LW      M21
 6451 3ccc 88408FE2 	 adrl ra, MA21
 6451      0E4C84E2 
 6452 3cd4 004094E5 	 ldr ra, [ra]
 6453              	@ SP      P23
 6454 3cd8 5C408AE5 	 str ra, [rp, #+92] @ 0000005C
 6455              	@ XCH
 6456 3cdc 0410A0E1 	 mov r1, ra
 6457 3ce0 0540A0E1 	 mov ra, rb
 6458 3ce4 0150A0E1 	 mov rb, r1
 6459              	@ KPG     P19 G208
 6460 3ce8 40139BE5 	 ldr r1, [rg, #+832] @ 00000340
 6461 3cec 4C208AE2 	 add r2, rp, #76 @ 0000004C
 6462 3cf0 0FE0A0E1 	 mov lr, pc
 6463 3cf4 01F0A0E1 	 mov pc, r1
 6464              	@ L       K600
 6465 3cf8 964FA0E3 	 mov ra, #600 @ 00000258
 6466              	@ SG      G203
 6467 3cfc 2C438BE5 	 str ra, [rg, #+812] @ 0000032C
 6468              	@ L       K104
 6469 3d00 6840A0E3 	 mov ra, #104 @ 00000068
 6470              	@ SP      P23
 6471 3d04 5C408AE5 	 str ra, [rp, #+92] @ 0000005C
 6472              	@ L       K105
 6473 3d08 6940A0E3 	 mov ra, #105 @ 00000069
 6474              	@ SP      P24
 6475 3d0c 60408AE5 	 str ra, [rp, #+96] @ 00000060
 6476              	@ L       K106
 6477 3d10 6A40A0E3 	 mov ra, #106 @ 0000006A
 6478              	@ SP      P25
 6479 3d14 64408AE5 	 str ra, [rp, #+100] @ 00000064
 6480              	@ L       K107
 6481 3d18 6B40A0E3 	 mov ra, #107 @ 0000006B
 6482              	@ SP      P26
 6483 3d1c 68408AE5 	 str ra, [rp, #+104] @ 00000068
 6484              	@ L       K108
 6485 3d20 6C40A0E3 	 mov ra, #108 @ 0000006C
 6486              	@ SP      P27
 6487 3d24 6C408AE5 	 str ra, [rp, #+108] @ 0000006C
 6488              	@ L       K109
 6489 3d28 6D40A0E3 	 mov ra, #109 @ 0000006D
 6490              	@ SP      P28
 6491 3d2c 70408AE5 	 str ra, [rp, #+112] @ 00000070
 6492              	@ L       K110
 6493 3d30 6E40A0E3 	 mov ra, #110 @ 0000006E
 6494              	@ SP      P29
 6495 3d34 74408AE5 	 str ra, [rp, #+116] @ 00000074
 6496              	@ L       K111
 6497 3d38 6F40A0E3 	 mov ra, #111 @ 0000006F
 6498              	@ SP      P30
 6499 3d3c 78408AE5 	 str ra, [rp, #+120] @ 00000078
 6500              	@ L       K112
 6501 3d40 7040A0E3 	 mov ra, #112 @ 00000070
ARM GAS  temps/cmpltest.s 			page 116


 6502              	@ SP      P31
 6503 3d44 7C408AE5 	 str ra, [rp, #+124] @ 0000007C
 6504              	@ L       K113
 6505 3d48 7140A0E3 	 mov ra, #113 @ 00000071
 6506              	@ SP      P32
 6507 3d4c 80408AE5 	 str ra, [rp, #+128] @ 00000080
 6508              	@ L       K114
 6509 3d50 7240A0E3 	 mov ra, #114 @ 00000072
 6510              	@ SP      P33
 6511 3d54 84408AE5 	 str ra, [rp, #+132] @ 00000084
 6512              	@ L       K115
 6513 3d58 7340A0E3 	 mov ra, #115 @ 00000073
 6514              	@ SP      P34
 6515 3d5c 88408AE5 	 str ra, [rp, #+136] @ 00000088
 6516              	@ L       K116
 6517 3d60 7440A0E3 	 mov ra, #116 @ 00000074
 6518              	@ SP      P35
 6519 3d64 8C408AE5 	 str ra, [rp, #+140] @ 0000008C
 6520              	@ L       K117
 6521 3d68 7540A0E3 	 mov ra, #117 @ 00000075
 6522              	@ SP      P36
 6523 3d6c 90408AE5 	 str ra, [rp, #+144] @ 00000090
 6524              	@ L       K103
 6525 3d70 6740A0E3 	 mov ra, #103 @ 00000067
 6526              	@ ATB
 6527 3d74 0450A0E1 	 mov rb, ra
 6528              	@ LF      L28
 6529 3d78 84408FE2 	 adrl ra, LA28
 6529      124C84E2 
 6530              	@ K       P19
 6531 3d80 4C208AE2 	 add r2, rp, #76 @ 0000004C
 6532 3d84 0410A0E1 	 mov r1, ra
 6533 3d88 0540A0E1 	 mov ra, rb
 6534 3d8c 0FE0A0E1 	 mov lr, pc
 6535 3d90 01F0A0E1 	 mov pc, r1
 6536              	@ L       K700
 6537 3d94 AF4FA0E3 	 mov ra, #700 @ 000002BC
 6538              	@ SG      G203
 6539 3d98 2C438BE5 	 str ra, [rg, #+812] @ 0000032C
 6540              	@ L       K1
 6541 3d9c 0140A0E3 	 mov ra, #1 @ 00000001
 6542              	@ SG      G250
 6543 3da0 E8438BE5 	 str ra, [rg, #+1000] @ 000003E8
 6544              	@ LG      G211
 6545 3da4 4C439BE5 	 ldr ra, [rg, #+844] @ 0000034C
 6546              	@ SG      G251
 6547 3da8 EC438BE5 	 str ra, [rg, #+1004] @ 000003EC
 6548              	@ LG      G212
 6549 3dac 50439BE5 	 ldr ra, [rg, #+848] @ 00000350
 6550              	@ SG      G252
 6551 3db0 F0438BE5 	 str ra, [rg, #+1008] @ 000003F0
 6552              	@ LG      G250
 6553 3db4 E8439BE5 	 ldr ra, [rg, #+1000] @ 000003E8
 6554              	@ ATBL    K0
 6555 3db8 0450A0E1 	 mov rb, ra
 6556 3dbc 0040A0E3 	 mov ra, #0 @ 00000000
 6557              	@ LSH
ARM GAS  temps/cmpltest.s 			page 117


 6558 3dc0 1F0054E3 	 cmp ra, #31
 6559 3dc4 0050A083 	 movhi rb, #0
 6560 3dc8 1544A0E1 	 mov ra, rb, lsl ra
 6561              	@ ATB
 6562 3dcc 0450A0E1 	 mov rb, ra
 6563              	@ L       K1
 6564 3dd0 0140A0E3 	 mov ra, #1 @ 00000001
 6565              	@ SP      P23
 6566 3dd4 5C408AE5 	 str ra, [rp, #+92] @ 0000005C
 6567              	@ XCH
 6568 3dd8 0410A0E1 	 mov r1, ra
 6569 3ddc 0540A0E1 	 mov ra, rb
 6570 3de0 0150A0E1 	 mov rb, r1
 6571              	@ KPG     P19 G208
 6572 3de4 40139BE5 	 ldr r1, [rg, #+832] @ 00000340
 6573 3de8 4C208AE2 	 add r2, rp, #76 @ 0000004C
 6574 3dec 0FE0A0E1 	 mov lr, pc
 6575 3df0 01F0A0E1 	 mov pc, r1
 6576              	@ LG      G250
 6577 3df4 E8439BE5 	 ldr ra, [rg, #+1000] @ 000003E8
 6578              	@ ATBL    K1
 6579 3df8 0450A0E1 	 mov rb, ra
 6580 3dfc 0140A0E3 	 mov ra, #1 @ 00000001
 6581              	@ LSH
 6582 3e00 1F0054E3 	 cmp ra, #31
 6583 3e04 0050A083 	 movhi rb, #0
 6584 3e08 1544A0E1 	 mov ra, rb, lsl ra
 6585              	@ ATB
 6586 3e0c 0450A0E1 	 mov rb, ra
 6587              	@ L       K2
 6588 3e10 0240A0E3 	 mov ra, #2 @ 00000002
 6589              	@ SP      P23
 6590 3e14 5C408AE5 	 str ra, [rp, #+92] @ 0000005C
 6591              	@ XCH
 6592 3e18 0410A0E1 	 mov r1, ra
 6593 3e1c 0540A0E1 	 mov ra, rb
 6594 3e20 0150A0E1 	 mov rb, r1
 6595              	@ KPG     P19 G208
 6596 3e24 40139BE5 	 ldr r1, [rg, #+832] @ 00000340
 6597 3e28 4C208AE2 	 add r2, rp, #76 @ 0000004C
 6598 3e2c 0FE0A0E1 	 mov lr, pc
 6599 3e30 01F0A0E1 	 mov pc, r1
 6600              	@ LG      G250
 6601 3e34 E8439BE5 	 ldr ra, [rg, #+1000] @ 000003E8
 6602              	@ ATBL    K2
 6603 3e38 0450A0E1 	 mov rb, ra
 6604 3e3c 0240A0E3 	 mov ra, #2 @ 00000002
 6605              	@ LSH
 6606 3e40 1F0054E3 	 cmp ra, #31
 6607 3e44 0050A083 	 movhi rb, #0
 6608 3e48 1544A0E1 	 mov ra, rb, lsl ra
 6609              	@ ATB
 6610 3e4c 0450A0E1 	 mov rb, ra
 6611              	@ L       K4
 6612 3e50 0440A0E3 	 mov ra, #4 @ 00000004
 6613              	@ SP      P23
 6614 3e54 5C408AE5 	 str ra, [rp, #+92] @ 0000005C
ARM GAS  temps/cmpltest.s 			page 118


 6615              	@ XCH
 6616 3e58 0410A0E1 	 mov r1, ra
 6617 3e5c 0540A0E1 	 mov ra, rb
 6618 3e60 0150A0E1 	 mov rb, r1
 6619              	@ KPG     P19 G208
 6620 3e64 40139BE5 	 ldr r1, [rg, #+832] @ 00000340
 6621 3e68 4C208AE2 	 add r2, rp, #76 @ 0000004C
 6622 3e6c 0FE0A0E1 	 mov lr, pc
 6623 3e70 01F0A0E1 	 mov pc, r1
 6624              	@ LG      G210
 6625 3e74 48439BE5 	 ldr ra, [rg, #+840] @ 00000348
 6626              	@ S       K1
 6627 3e78 014044E2 	 sub ra, ra, #1 @ 00000001
 6628              	@ ATBLG   G250
 6629 3e7c 0450A0E1 	 mov rb, ra
 6630 3e80 E8439BE5 	 ldr ra, [rg, #+1000] @ 000003E8
 6631              	@ XCH
 6632 3e84 0410A0E1 	 mov r1, ra
 6633 3e88 0540A0E1 	 mov ra, rb
 6634 3e8c 0150A0E1 	 mov rb, r1
 6635              	@ LSH
 6636 3e90 1F0054E3 	 cmp ra, #31
 6637 3e94 0050A083 	 movhi rb, #0
 6638 3e98 1544A0E1 	 mov ra, rb, lsl ra
 6639              	@ ATB
 6640 3e9c 0450A0E1 	 mov rb, ra
 6641              	@ LG      G211
 6642 3ea0 4C439BE5 	 ldr ra, [rg, #+844] @ 0000034C
 6643              	@ SP      P23
 6644 3ea4 5C408AE5 	 str ra, [rp, #+92] @ 0000005C
 6645              	@ XCH
 6646 3ea8 0410A0E1 	 mov r1, ra
 6647 3eac 0540A0E1 	 mov ra, rb
 6648 3eb0 0150A0E1 	 mov rb, r1
 6649              	@ KPG     P19 G208
 6650 3eb4 40139BE5 	 ldr r1, [rg, #+832] @ 00000340
 6651 3eb8 4C208AE2 	 add r2, rp, #76 @ 0000004C
 6652 3ebc 0FE0A0E1 	 mov lr, pc
 6653 3ec0 01F0A0E1 	 mov pc, r1
 6654              	@ LG      G250
 6655 3ec4 E8439BE5 	 ldr ra, [rg, #+1000] @ 000003E8
 6656              	@ ATBLG   G210
 6657 3ec8 0450A0E1 	 mov rb, ra
 6658 3ecc 48439BE5 	 ldr ra, [rg, #+840] @ 00000348
 6659              	@ LSH
 6660 3ed0 1F0054E3 	 cmp ra, #31
 6661 3ed4 0050A083 	 movhi rb, #0
 6662 3ed8 1544A0E1 	 mov ra, rb, lsl ra
 6663              	@ ATB
 6664 3edc 0450A0E1 	 mov rb, ra
 6665              	@ L       K0
 6666 3ee0 0040A0E3 	 mov ra, #0 @ 00000000
 6667              	@ SP      P23
 6668 3ee4 5C408AE5 	 str ra, [rp, #+92] @ 0000005C
 6669              	@ XCH
 6670 3ee8 0410A0E1 	 mov r1, ra
 6671 3eec 0540A0E1 	 mov ra, rb
ARM GAS  temps/cmpltest.s 			page 119


 6672 3ef0 0150A0E1 	 mov rb, r1
 6673              	@ KPG     P19 G208
 6674 3ef4 40139BE5 	 ldr r1, [rg, #+832] @ 00000340
 6675 3ef8 4C208AE2 	 add r2, rp, #76 @ 0000004C
 6676 3efc 0FE0A0E1 	 mov lr, pc
 6677 3f00 01F0A0E1 	 mov pc, r1
 6678              	@ LG      G210
 6679 3f04 48439BE5 	 ldr ra, [rg, #+840] @ 00000348
 6680              	@ A       K1
 6681 3f08 014084E2 	 add ra, ra, #1 @ 00000001
 6682              	@ ATBLG   G250
 6683 3f0c 0450A0E1 	 mov rb, ra
 6684 3f10 E8439BE5 	 ldr ra, [rg, #+1000] @ 000003E8
 6685              	@ XCH
 6686 3f14 0410A0E1 	 mov r1, ra
 6687 3f18 0540A0E1 	 mov ra, rb
 6688 3f1c 0150A0E1 	 mov rb, r1
 6689              	@ LSH
 6690 3f20 1F0054E3 	 cmp ra, #31
 6691 3f24 0050A083 	 movhi rb, #0
 6692 3f28 1544A0E1 	 mov ra, rb, lsl ra
 6693              	@ ATB
 6694 3f2c 0450A0E1 	 mov rb, ra
 6695              	@ L       K0
 6696 3f30 0040A0E3 	 mov ra, #0 @ 00000000
 6697              	@ SP      P23
 6698 3f34 5C408AE5 	 str ra, [rp, #+92] @ 0000005C
 6699              	@ XCH
 6700 3f38 0410A0E1 	 mov r1, ra
 6701 3f3c 0540A0E1 	 mov ra, rb
 6702 3f40 0150A0E1 	 mov rb, r1
 6703              	@ KPG     P19 G208
 6704 3f44 40139BE5 	 ldr r1, [rg, #+832] @ 00000340
 6705 3f48 4C208AE2 	 add r2, rp, #76 @ 0000004C
 6706 3f4c 0FE0A0E1 	 mov lr, pc
 6707 3f50 01F0A0E1 	 mov pc, r1
 6708              	@ LG      G250
 6709 3f54 E8439BE5 	 ldr ra, [rg, #+1000] @ 000003E8
 6710              	@ ATBL    K0
 6711 3f58 0450A0E1 	 mov rb, ra
 6712 3f5c 0040A0E3 	 mov ra, #0 @ 00000000
 6713              	@ RSH
 6714 3f60 1F0054E3 	 cmp ra, #31
 6715 3f64 0050A083 	 movhi rb, #0
 6716 3f68 3544A0E1 	 mov ra, rb, lsr ra
 6717              	@ ATB
 6718 3f6c 0450A0E1 	 mov rb, ra
 6719              	@ L       K1
 6720 3f70 0140A0E3 	 mov ra, #1 @ 00000001
 6721              	@ SP      P23
 6722 3f74 5C408AE5 	 str ra, [rp, #+92] @ 0000005C
 6723              	@ XCH
 6724 3f78 0410A0E1 	 mov r1, ra
 6725 3f7c 0540A0E1 	 mov ra, rb
 6726 3f80 0150A0E1 	 mov rb, r1
 6727              	@ KPG     P19 G208
 6728 3f84 40139BE5 	 ldr r1, [rg, #+832] @ 00000340
ARM GAS  temps/cmpltest.s 			page 120


 6729 3f88 4C208AE2 	 add r2, rp, #76 @ 0000004C
 6730 3f8c 0FE0A0E1 	 mov lr, pc
 6731 3f90 01F0A0E1 	 mov pc, r1
 6732              	@ LG      G210
 6733 3f94 48439BE5 	 ldr ra, [rg, #+840] @ 00000348
 6734              	@ S       K1
 6735 3f98 014044E2 	 sub ra, ra, #1 @ 00000001
 6736              	@ ATBLG   G251
 6737 3f9c 0450A0E1 	 mov rb, ra
 6738 3fa0 EC439BE5 	 ldr ra, [rg, #+1004] @ 000003EC
 6739              	@ XCH
 6740 3fa4 0410A0E1 	 mov r1, ra
 6741 3fa8 0540A0E1 	 mov ra, rb
 6742 3fac 0150A0E1 	 mov rb, r1
 6743              	@ RSH
 6744 3fb0 1F0054E3 	 cmp ra, #31
 6745 3fb4 0050A083 	 movhi rb, #0
 6746 3fb8 3544A0E1 	 mov ra, rb, lsr ra
 6747              	@ ATB
 6748 3fbc 0450A0E1 	 mov rb, ra
 6749              	@ L       K1
 6750 3fc0 0140A0E3 	 mov ra, #1 @ 00000001
 6751              	@ SP      P23
 6752 3fc4 5C408AE5 	 str ra, [rp, #+92] @ 0000005C
 6753              	@ XCH
 6754 3fc8 0410A0E1 	 mov r1, ra
 6755 3fcc 0540A0E1 	 mov ra, rb
 6756 3fd0 0150A0E1 	 mov rb, r1
 6757              	@ KPG     P19 G208
 6758 3fd4 40139BE5 	 ldr r1, [rg, #+832] @ 00000340
 6759 3fd8 4C208AE2 	 add r2, rp, #76 @ 0000004C
 6760 3fdc 0FE0A0E1 	 mov lr, pc
 6761 3fe0 01F0A0E1 	 mov pc, r1
 6762              	@ LG      G210
 6763 3fe4 48439BE5 	 ldr ra, [rg, #+840] @ 00000348
 6764              	@ S       K1
 6765 3fe8 014044E2 	 sub ra, ra, #1 @ 00000001
 6766              	@ ATBLG   G252
 6767 3fec 0450A0E1 	 mov rb, ra
 6768 3ff0 F0439BE5 	 ldr ra, [rg, #+1008] @ 000003F0
 6769              	@ XCH
 6770 3ff4 0410A0E1 	 mov r1, ra
 6771 3ff8 0540A0E1 	 mov ra, rb
 6772 3ffc 0150A0E1 	 mov rb, r1
 6773              	@ RSH
 6774 4000 1F0054E3 	 cmp ra, #31
 6775 4004 0050A083 	 movhi rb, #0
 6776 4008 3544A0E1 	 mov ra, rb, lsr ra
 6777              	@ ATB
 6778 400c 0450A0E1 	 mov rb, ra
 6779              	@ L       K1
 6780 4010 0140A0E3 	 mov ra, #1 @ 00000001
 6781              	@ SP      P23
 6782 4014 5C408AE5 	 str ra, [rp, #+92] @ 0000005C
 6783              	@ XCH
 6784 4018 0410A0E1 	 mov r1, ra
 6785 401c 0540A0E1 	 mov ra, rb
ARM GAS  temps/cmpltest.s 			page 121


 6786 4020 0150A0E1 	 mov rb, r1
 6787              	@ KPG     P19 G208
 6788 4024 40139BE5 	 ldr r1, [rg, #+832] @ 00000340
 6789 4028 4C208AE2 	 add r2, rp, #76 @ 0000004C
 6790 402c 0FE0A0E1 	 mov lr, pc
 6791 4030 01F0A0E1 	 mov pc, r1
 6792              	@ LG      G251
 6793 4034 EC439BE5 	 ldr ra, [rg, #+1004] @ 000003EC
 6794              	@ ATBLG   G210
 6795 4038 0450A0E1 	 mov rb, ra
 6796 403c 48439BE5 	 ldr ra, [rg, #+840] @ 00000348
 6797              	@ RSH
 6798 4040 1F0054E3 	 cmp ra, #31
 6799 4044 0050A083 	 movhi rb, #0
 6800 4048 3544A0E1 	 mov ra, rb, lsr ra
 6801              	@ ATB
 6802 404c 0450A0E1 	 mov rb, ra
 6803              	@ L       K0
 6804 4050 0040A0E3 	 mov ra, #0 @ 00000000
 6805              	@ SP      P23
 6806 4054 5C408AE5 	 str ra, [rp, #+92] @ 0000005C
 6807              	@ XCH
 6808 4058 0410A0E1 	 mov r1, ra
 6809 405c 0540A0E1 	 mov ra, rb
 6810 4060 0150A0E1 	 mov rb, r1
 6811              	@ KPG     P19 G208
 6812 4064 40139BE5 	 ldr r1, [rg, #+832] @ 00000340
 6813 4068 4C208AE2 	 add r2, rp, #76 @ 0000004C
 6814 406c 0FE0A0E1 	 mov lr, pc
 6815 4070 01F0A0E1 	 mov pc, r1
 6816              	@ LG      G252
 6817 4074 F0439BE5 	 ldr ra, [rg, #+1008] @ 000003F0
 6818              	@ ATBLG   G210
 6819 4078 0450A0E1 	 mov rb, ra
 6820 407c 48439BE5 	 ldr ra, [rg, #+840] @ 00000348
 6821              	@ RSH
 6822 4080 1F0054E3 	 cmp ra, #31
 6823 4084 0050A083 	 movhi rb, #0
 6824 4088 3544A0E1 	 mov ra, rb, lsr ra
 6825              	@ ATB
 6826 408c 0450A0E1 	 mov rb, ra
 6827              	@ L       K0
 6828 4090 0040A0E3 	 mov ra, #0 @ 00000000
 6829              	@ SP      P23
 6830 4094 5C408AE5 	 str ra, [rp, #+92] @ 0000005C
 6831              	@ XCH
 6832 4098 0410A0E1 	 mov r1, ra
 6833 409c 0540A0E1 	 mov ra, rb
 6834 40a0 0150A0E1 	 mov rb, r1
 6835              	@ KPG     P19 G208
 6836 40a4 40139BE5 	 ldr r1, [rg, #+832] @ 00000340
 6837 40a8 4C208AE2 	 add r2, rp, #76 @ 0000004C
 6838 40ac 0FE0A0E1 	 mov lr, pc
 6839 40b0 01F0A0E1 	 mov pc, r1
 6840              	@ L       K800
 6841 40b4 324EA0E3 	 mov ra, #800 @ 00000320
 6842              	@ SG      G203
ARM GAS  temps/cmpltest.s 			page 122


 6843 40b8 2C438BE5 	 str ra, [rg, #+812] @ 0000032C
 6844              	@ L       K20
 6845 40bc 1440A0E3 	 mov ra, #20 @ 00000014
 6846              	@ SG      G250
 6847 40c0 E8438BE5 	 str ra, [rg, #+1000] @ 000003E8
 6848              	@ LM      K30
 6849 40c4 1D40E0E3 	 mvn ra, #29 @ 0000001D
 6850              	@ SG      G251
 6851 40c8 EC438BE5 	 str ra, [rg, #+1004] @ 000003EC
 6852              	@ L       K0
 6853 40cc 0040A0E3 	 mov ra, #0 @ 00000000
 6854              	@ SG      G252
 6855 40d0 F0438BE5 	 str ra, [rg, #+1008] @ 000003F0
 6856              	@ LG      G250
 6857 40d4 E8439BE5 	 ldr ra, [rg, #+1000] @ 000003E8
 6858              	@ ABS
 6859 40d8 000054E3 	 cmp ra, #0
 6860 40dc 004064B2 	 rsblt ra, ra, #0
 6861              	@ ATB
 6862 40e0 0450A0E1 	 mov rb, ra
 6863              	@ L       K20
 6864 40e4 1440A0E3 	 mov ra, #20 @ 00000014
 6865              	@ SP      P23
 6866 40e8 5C408AE5 	 str ra, [rp, #+92] @ 0000005C
 6867              	@ XCH
 6868 40ec 0410A0E1 	 mov r1, ra
 6869 40f0 0540A0E1 	 mov ra, rb
 6870 40f4 0150A0E1 	 mov rb, r1
 6871              	@ KPG     P19 G208
 6872 40f8 40139BE5 	 ldr r1, [rg, #+832] @ 00000340
 6873 40fc 4C208AE2 	 add r2, rp, #76 @ 0000004C
 6874 4100 0FE0A0E1 	 mov lr, pc
 6875 4104 01F0A0E1 	 mov pc, r1
 6876              	@ LG      G251
 6877 4108 EC439BE5 	 ldr ra, [rg, #+1004] @ 000003EC
 6878              	@ ABS
 6879 410c 000054E3 	 cmp ra, #0
 6880 4110 004064B2 	 rsblt ra, ra, #0
 6881              	@ ATB
 6882 4114 0450A0E1 	 mov rb, ra
 6883              	@ L       K30
 6884 4118 1E40A0E3 	 mov ra, #30 @ 0000001E
 6885              	@ SP      P23
 6886 411c 5C408AE5 	 str ra, [rp, #+92] @ 0000005C
 6887              	@ XCH
 6888 4120 0410A0E1 	 mov r1, ra
 6889 4124 0540A0E1 	 mov ra, rb
 6890 4128 0150A0E1 	 mov rb, r1
 6891              	@ KPG     P19 G208
 6892 412c 40139BE5 	 ldr r1, [rg, #+832] @ 00000340
 6893 4130 4C208AE2 	 add r2, rp, #76 @ 0000004C
 6894 4134 0FE0A0E1 	 mov lr, pc
 6895 4138 01F0A0E1 	 mov pc, r1
 6896              	@ LG      G252
 6897 413c F0439BE5 	 ldr ra, [rg, #+1008] @ 000003F0
 6898              	@ ABS
 6899 4140 000054E3 	 cmp ra, #0
ARM GAS  temps/cmpltest.s 			page 123


 6900 4144 004064B2 	 rsblt ra, ra, #0
 6901              	@ ATB
 6902 4148 0450A0E1 	 mov rb, ra
 6903              	@ L       K0
 6904 414c 0040A0E3 	 mov ra, #0 @ 00000000
 6905              	@ SP      P23
 6906 4150 5C408AE5 	 str ra, [rp, #+92] @ 0000005C
 6907              	@ XCH
 6908 4154 0410A0E1 	 mov r1, ra
 6909 4158 0540A0E1 	 mov ra, rb
 6910 415c 0150A0E1 	 mov rb, r1
 6911              	@ KPG     P19 G208
 6912 4160 40139BE5 	 ldr r1, [rg, #+832] @ 00000340
 6913 4164 4C208AE2 	 add r2, rp, #76 @ 0000004C
 6914 4168 0FE0A0E1 	 mov lr, pc
 6915 416c 01F0A0E1 	 mov pc, r1
 6916              	@ L       K1001
 6917 4170 E940A0E3 	 mov ra, #233 @ 000000E9
 6918 4174 034C84E3 	 orr ra, ra, #768 @ 00000300
 6919              	@ SKG     K0 G205
 6920 4178 34139BE5 	 ldr r1, [rg, #+820] @ 00000334
 6921 417c 0020A0E3 	 mov r2, #0 @ 00000000
 6922 4180 014182E7 	 str ra, [r2, r1, lsl #2]
 6923              	@ SP      P23
 6924 4184 5C408AE5 	 str ra, [rp, #+92] @ 0000005C
 6925              	@ LKG     K0 G205
 6926 4188 34439BE5 	 ldr ra, [rg, #+820] @ 00000334
 6927 418c 0010A0E3 	 mov r1, #0 @ 00000000
 6928 4190 044191E7 	 ldr ra, [r1, ra, lsl #2]
 6929              	@ KPG     P19 G208
 6930 4194 40139BE5 	 ldr r1, [rg, #+832] @ 00000340
 6931 4198 4C208AE2 	 add r2, rp, #76 @ 0000004C
 6932 419c 0FE0A0E1 	 mov lr, pc
 6933 41a0 01F0A0E1 	 mov pc, r1
 6934              	@ L       K1002
 6935 41a4 EA40A0E3 	 mov ra, #234 @ 000000EA
 6936 41a8 034C84E3 	 orr ra, ra, #768 @ 00000300
 6937              	@ ATBLG   G205
 6938 41ac 0450A0E1 	 mov rb, ra
 6939 41b0 34439BE5 	 ldr ra, [rg, #+820] @ 00000334
 6940              	@ STK     K1
 6941 41b4 0410A0E3 	 mov r1, #4 @ 00000004
 6942 41b8 045181E7 	 str rb, [r1, ra, lsl #2]
 6943              	@ BTA
 6944 41bc 0540A0E1 	 mov ra, rb
 6945              	@ SP      P23
 6946 41c0 5C408AE5 	 str ra, [rp, #+92] @ 0000005C
 6947              	@ LKG     K1 G205
 6948 41c4 34439BE5 	 ldr ra, [rg, #+820] @ 00000334
 6949 41c8 0410A0E3 	 mov r1, #4 @ 00000004
 6950 41cc 044191E7 	 ldr ra, [r1, ra, lsl #2]
 6951              	@ KPG     P19 G208
 6952 41d0 40139BE5 	 ldr r1, [rg, #+832] @ 00000340
 6953 41d4 4C208AE2 	 add r2, rp, #76 @ 0000004C
 6954 41d8 0FE0A0E1 	 mov lr, pc
 6955 41dc 01F0A0E1 	 mov pc, r1
 6956              	@ L       K1003
ARM GAS  temps/cmpltest.s 			page 124


 6957 41e0 EB40A0E3 	 mov ra, #235 @ 000000EB
 6958 41e4 034C84E3 	 orr ra, ra, #768 @ 00000300
 6959              	@ ATBLG   G205
 6960 41e8 0450A0E1 	 mov rb, ra
 6961 41ec 34439BE5 	 ldr ra, [rg, #+820] @ 00000334
 6962              	@ STK     K2
 6963 41f0 0810A0E3 	 mov r1, #8 @ 00000008
 6964 41f4 045181E7 	 str rb, [r1, ra, lsl #2]
 6965              	@ BTA
 6966 41f8 0540A0E1 	 mov ra, rb
 6967              	@ SP      P23
 6968 41fc 5C408AE5 	 str ra, [rp, #+92] @ 0000005C
 6969              	@ LKG     K2 G205
 6970 4200 34439BE5 	 ldr ra, [rg, #+820] @ 00000334
 6971 4204 0810A0E3 	 mov r1, #8 @ 00000008
 6972 4208 044191E7 	 ldr ra, [r1, ra, lsl #2]
 6973              	@ KPG     P19 G208
 6974 420c 40139BE5 	 ldr r1, [rg, #+832] @ 00000340
 6975 4210 4C208AE2 	 add r2, rp, #76 @ 0000004C
 6976 4214 0FE0A0E1 	 mov lr, pc
 6977 4218 01F0A0E1 	 mov pc, r1
 6978              	@ L       K1004
 6979 421c FB4FA0E3 	 mov ra, #1004 @ 000003EC
 6980              	@ ATBLG   G205
 6981 4220 0450A0E1 	 mov rb, ra
 6982 4224 34439BE5 	 ldr ra, [rg, #+820] @ 00000334
 6983              	@ STK     K3
 6984 4228 0C10A0E3 	 mov r1, #12 @ 0000000C
 6985 422c 045181E7 	 str rb, [r1, ra, lsl #2]
 6986              	@ BTA
 6987 4230 0540A0E1 	 mov ra, rb
 6988              	@ SP      P23
 6989 4234 5C408AE5 	 str ra, [rp, #+92] @ 0000005C
 6990              	@ LKG     K3 G205
 6991 4238 34439BE5 	 ldr ra, [rg, #+820] @ 00000334
 6992 423c 0C10A0E3 	 mov r1, #12 @ 0000000C
 6993 4240 044191E7 	 ldr ra, [r1, ra, lsl #2]
 6994              	@ KPG     P19 G208
 6995 4244 40139BE5 	 ldr r1, [rg, #+832] @ 00000340
 6996 4248 4C208AE2 	 add r2, rp, #76 @ 0000004C
 6997 424c 0FE0A0E1 	 mov lr, pc
 6998 4250 01F0A0E1 	 mov pc, r1
 6999              	@ LG      G205
 7000 4254 34439BE5 	 ldr ra, [rg, #+820] @ 00000334
 7001              	@ A       K4
 7002 4258 044084E2 	 add ra, ra, #4 @ 00000004
 7003              	@ ATBL    K1005
 7004 425c 0450A0E1 	 mov rb, ra
 7005 4260 ED40A0E3 	 mov ra, #237 @ 000000ED
 7006 4264 034C84E3 	 orr ra, ra, #768 @ 00000300
 7007              	@ XST
 7008 4268 0010A0E3 	 mov r1, #0
 7009 426c 054181E7 	 str ra, [r1, rb, lsl #2]
 7010              	@ SP      P23
 7011 4270 5C408AE5 	 str ra, [rp, #+92] @ 0000005C
 7012              	@ LKG     K4 G205
 7013 4274 34439BE5 	 ldr ra, [rg, #+820] @ 00000334
ARM GAS  temps/cmpltest.s 			page 125


 7014 4278 1010A0E3 	 mov r1, #16 @ 00000010
 7015 427c 044191E7 	 ldr ra, [r1, ra, lsl #2]
 7016              	@ KPG     P19 G208
 7017 4280 40139BE5 	 ldr r1, [rg, #+832] @ 00000340
 7018 4284 4C208AE2 	 add r2, rp, #76 @ 0000004C
 7019 4288 0FE0A0E1 	 mov lr, pc
 7020 428c 01F0A0E1 	 mov pc, r1
 7021              	@ L       K2001
 7022 4290 D140A0E3 	 mov ra, #209 @ 000000D1
 7023 4294 074C84E3 	 orr ra, ra, #1792 @ 00000700
 7024              	@ SKG     K0 G253
 7025 4298 F4139BE5 	 ldr r1, [rg, #+1012] @ 000003F4
 7026 429c 0020A0E3 	 mov r2, #0 @ 00000000
 7027 42a0 014182E7 	 str ra, [r2, r1, lsl #2]
 7028              	@ SP      P23
 7029 42a4 5C408AE5 	 str ra, [rp, #+92] @ 0000005C
 7030              	@ LKG     K0 G253
 7031 42a8 F4439BE5 	 ldr ra, [rg, #+1012] @ 000003F4
 7032 42ac 0010A0E3 	 mov r1, #0 @ 00000000
 7033 42b0 044191E7 	 ldr ra, [r1, ra, lsl #2]
 7034              	@ KPG     P19 G208
 7035 42b4 40139BE5 	 ldr r1, [rg, #+832] @ 00000340
 7036 42b8 4C208AE2 	 add r2, rp, #76 @ 0000004C
 7037 42bc 0FE0A0E1 	 mov lr, pc
 7038 42c0 01F0A0E1 	 mov pc, r1
 7039              	@ L       K2002
 7040 42c4 D240A0E3 	 mov ra, #210 @ 000000D2
 7041 42c8 074C84E3 	 orr ra, ra, #1792 @ 00000700
 7042              	@ ATBLG   G253
 7043 42cc 0450A0E1 	 mov rb, ra
 7044 42d0 F4439BE5 	 ldr ra, [rg, #+1012] @ 000003F4
 7045              	@ STK     K1
 7046 42d4 0410A0E3 	 mov r1, #4 @ 00000004
 7047 42d8 045181E7 	 str rb, [r1, ra, lsl #2]
 7048              	@ BTA
 7049 42dc 0540A0E1 	 mov ra, rb
 7050              	@ SP      P23
 7051 42e0 5C408AE5 	 str ra, [rp, #+92] @ 0000005C
 7052              	@ LKG     K1 G253
 7053 42e4 F4439BE5 	 ldr ra, [rg, #+1012] @ 000003F4
 7054 42e8 0410A0E3 	 mov r1, #4 @ 00000004
 7055 42ec 044191E7 	 ldr ra, [r1, ra, lsl #2]
 7056              	@ KPG     P19 G208
 7057 42f0 40139BE5 	 ldr r1, [rg, #+832] @ 00000340
 7058 42f4 4C208AE2 	 add r2, rp, #76 @ 0000004C
 7059 42f8 0FE0A0E1 	 mov lr, pc
 7060 42fc 01F0A0E1 	 mov pc, r1
 7061              	@ L       K2003
 7062 4300 D340A0E3 	 mov ra, #211 @ 000000D3
 7063 4304 074C84E3 	 orr ra, ra, #1792 @ 00000700
 7064              	@ ATBLG   G253
 7065 4308 0450A0E1 	 mov rb, ra
 7066 430c F4439BE5 	 ldr ra, [rg, #+1012] @ 000003F4
 7067              	@ STK     K2
 7068 4310 0810A0E3 	 mov r1, #8 @ 00000008
 7069 4314 045181E7 	 str rb, [r1, ra, lsl #2]
 7070              	@ BTA
ARM GAS  temps/cmpltest.s 			page 126


 7071 4318 0540A0E1 	 mov ra, rb
 7072              	@ SP      P23
 7073 431c 5C408AE5 	 str ra, [rp, #+92] @ 0000005C
 7074              	@ LKG     K2 G253
 7075 4320 F4439BE5 	 ldr ra, [rg, #+1012] @ 000003F4
 7076 4324 0810A0E3 	 mov r1, #8 @ 00000008
 7077 4328 044191E7 	 ldr ra, [r1, ra, lsl #2]
 7078              	@ KPG     P19 G208
 7079 432c 40139BE5 	 ldr r1, [rg, #+832] @ 00000340
 7080 4330 4C208AE2 	 add r2, rp, #76 @ 0000004C
 7081 4334 0FE0A0E1 	 mov lr, pc
 7082 4338 01F0A0E1 	 mov pc, r1
 7083              	@ L       K2004
 7084 433c F54FA0E3 	 mov ra, #980 @ 000003D4
 7085 4340 014B84E3 	 orr ra, ra, #1024 @ 00000400
 7086              	@ ATBLG   G253
 7087 4344 0450A0E1 	 mov rb, ra
 7088 4348 F4439BE5 	 ldr ra, [rg, #+1012] @ 000003F4
 7089              	@ STK     K3
 7090 434c 0C10A0E3 	 mov r1, #12 @ 0000000C
 7091 4350 045181E7 	 str rb, [r1, ra, lsl #2]
 7092              	@ BTA
 7093 4354 0540A0E1 	 mov ra, rb
 7094              	@ SP      P23
 7095 4358 5C408AE5 	 str ra, [rp, #+92] @ 0000005C
 7096              	@ LKG     K3 G253
 7097 435c F4439BE5 	 ldr ra, [rg, #+1012] @ 000003F4
 7098 4360 0C10A0E3 	 mov r1, #12 @ 0000000C
 7099 4364 044191E7 	 ldr ra, [r1, ra, lsl #2]
 7100              	@ KPG     P19 G208
 7101 4368 40139BE5 	 ldr r1, [rg, #+832] @ 00000340
 7102 436c 4C208AE2 	 add r2, rp, #76 @ 0000004C
 7103 4370 0FE0A0E1 	 mov lr, pc
 7104 4374 01F0A0E1 	 mov pc, r1
 7105              	@ LG      G253
 7106 4378 F4439BE5 	 ldr ra, [rg, #+1012] @ 000003F4
 7107              	@ A       K4
 7108 437c 044084E2 	 add ra, ra, #4 @ 00000004
 7109              	@ ATBL    K2005
 7110 4380 0450A0E1 	 mov rb, ra
 7111 4384 D540A0E3 	 mov ra, #213 @ 000000D5
 7112 4388 074C84E3 	 orr ra, ra, #1792 @ 00000700
 7113              	@ XST
 7114 438c 0010A0E3 	 mov r1, #0
 7115 4390 054181E7 	 str ra, [r1, rb, lsl #2]
 7116              	@ SP      P23
 7117 4394 5C408AE5 	 str ra, [rp, #+92] @ 0000005C
 7118              	@ LKG     K4 G253
 7119 4398 F4439BE5 	 ldr ra, [rg, #+1012] @ 000003F4
 7120 439c 1010A0E3 	 mov r1, #16 @ 00000010
 7121 43a0 044191E7 	 ldr ra, [r1, ra, lsl #2]
 7122              	@ KPG     P19 G208
 7123 43a4 40139BE5 	 ldr r1, [rg, #+832] @ 00000340
 7124 43a8 4C208AE2 	 add r2, rp, #76 @ 0000004C
 7125 43ac 0FE0A0E1 	 mov lr, pc
 7126 43b0 01F0A0E1 	 mov pc, r1
 7127              	@ L       K21
ARM GAS  temps/cmpltest.s 			page 127


 7128 43b4 1540A0E3 	 mov ra, #21 @ 00000015
 7129              	@ ATC
 7130 43b8 0460A0E1 	 mov rc, ra
 7131              	@ LG      G253
 7132 43bc F4439BE5 	 ldr ra, [rg, #+1012] @ 000003F4
 7133              	@ ATBL    K0
 7134 43c0 0450A0E1 	 mov rb, ra
 7135 43c4 0040A0E3 	 mov ra, #0 @ 00000000
 7136              	@ PBYT
 7137 43c8 0561C4E7 	 strb rc, [ra, rb, lsl #2]
 7138              	@ ATBLG   G253
 7139 43cc 0450A0E1 	 mov rb, ra
 7140 43d0 F4439BE5 	 ldr ra, [rg, #+1012] @ 000003F4
 7141              	@ XGBYT
 7142 43d4 0441D5E7 	 ldrb ra, [rb, ra, lsl #2]
 7143              	@ ATB
 7144 43d8 0450A0E1 	 mov rb, ra
 7145              	@ L       K21
 7146 43dc 1540A0E3 	 mov ra, #21 @ 00000015
 7147              	@ SP      P23
 7148 43e0 5C408AE5 	 str ra, [rp, #+92] @ 0000005C
 7149              	@ XCH
 7150 43e4 0410A0E1 	 mov r1, ra
 7151 43e8 0540A0E1 	 mov ra, rb
 7152 43ec 0150A0E1 	 mov rb, r1
 7153              	@ KPG     P19 G208
 7154 43f0 40139BE5 	 ldr r1, [rg, #+832] @ 00000340
 7155 43f4 4C208AE2 	 add r2, rp, #76 @ 0000004C
 7156 43f8 0FE0A0E1 	 mov lr, pc
 7157 43fc 01F0A0E1 	 mov pc, r1
 7158              	@ L       K22
 7159 4400 1640A0E3 	 mov ra, #22 @ 00000016
 7160              	@ ATC
 7161 4404 0460A0E1 	 mov rc, ra
 7162              	@ LG      G253
 7163 4408 F4439BE5 	 ldr ra, [rg, #+1012] @ 000003F4
 7164              	@ ATBL    K1
 7165 440c 0450A0E1 	 mov rb, ra
 7166 4410 0140A0E3 	 mov ra, #1 @ 00000001
 7167              	@ PBYT
 7168 4414 0561C4E7 	 strb rc, [ra, rb, lsl #2]
 7169              	@ ATBLG   G253
 7170 4418 0450A0E1 	 mov rb, ra
 7171 441c F4439BE5 	 ldr ra, [rg, #+1012] @ 000003F4
 7172              	@ XGBYT
 7173 4420 0441D5E7 	 ldrb ra, [rb, ra, lsl #2]
 7174              	@ ATB
 7175 4424 0450A0E1 	 mov rb, ra
 7176              	@ L       K22
 7177 4428 1640A0E3 	 mov ra, #22 @ 00000016
 7178              	@ SP      P23
 7179 442c 5C408AE5 	 str ra, [rp, #+92] @ 0000005C
 7180              	@ XCH
 7181 4430 0410A0E1 	 mov r1, ra
 7182 4434 0540A0E1 	 mov ra, rb
 7183 4438 0150A0E1 	 mov rb, r1
 7184              	@ KPG     P19 G208
ARM GAS  temps/cmpltest.s 			page 128


 7185 443c 40139BE5 	 ldr r1, [rg, #+832] @ 00000340
 7186 4440 4C208AE2 	 add r2, rp, #76 @ 0000004C
 7187 4444 0FE0A0E1 	 mov lr, pc
 7188 4448 01F0A0E1 	 mov pc, r1
 7189              	@ L       K23
 7190 444c 1740A0E3 	 mov ra, #23 @ 00000017
 7191              	@ ATC
 7192 4450 0460A0E1 	 mov rc, ra
 7193              	@ LG      G253
 7194 4454 F4439BE5 	 ldr ra, [rg, #+1012] @ 000003F4
 7195              	@ ATBL    K2
 7196 4458 0450A0E1 	 mov rb, ra
 7197 445c 0240A0E3 	 mov ra, #2 @ 00000002
 7198              	@ PBYT
 7199 4460 0561C4E7 	 strb rc, [ra, rb, lsl #2]
 7200              	@ ATBLG   G253
 7201 4464 0450A0E1 	 mov rb, ra
 7202 4468 F4439BE5 	 ldr ra, [rg, #+1012] @ 000003F4
 7203              	@ XGBYT
 7204 446c 0441D5E7 	 ldrb ra, [rb, ra, lsl #2]
 7205              	@ ATB
 7206 4470 0450A0E1 	 mov rb, ra
 7207              	@ L       K23
 7208 4474 1740A0E3 	 mov ra, #23 @ 00000017
 7209              	@ SP      P23
 7210 4478 5C408AE5 	 str ra, [rp, #+92] @ 0000005C
 7211              	@ XCH
 7212 447c 0410A0E1 	 mov r1, ra
 7213 4480 0540A0E1 	 mov ra, rb
 7214 4484 0150A0E1 	 mov rb, r1
 7215              	@ KPG     P19 G208
 7216 4488 40139BE5 	 ldr r1, [rg, #+832] @ 00000340
 7217 448c 4C208AE2 	 add r2, rp, #76 @ 0000004C
 7218 4490 0FE0A0E1 	 mov lr, pc
 7219 4494 01F0A0E1 	 mov pc, r1
 7220              	@ L       K3
 7221 4498 0340A0E3 	 mov ra, #3 @ 00000003
 7222              	@ ATC
 7223 449c 0460A0E1 	 mov rc, ra
 7224              	@ ATBLG   G253
 7225 44a0 0450A0E1 	 mov rb, ra
 7226 44a4 F4439BE5 	 ldr ra, [rg, #+1012] @ 000003F4
 7227              	@ XPBYT
 7228 44a8 0461C5E7 	 strb rc, [rb, ra, lsl #2]
 7229              	@ LG      G253
 7230 44ac F4439BE5 	 ldr ra, [rg, #+1012] @ 000003F4
 7231              	@ XGBYT
 7232 44b0 0441D5E7 	 ldrb ra, [rb, ra, lsl #2]
 7233              	@ ATB
 7234 44b4 0450A0E1 	 mov rb, ra
 7235              	@ L       K3
 7236 44b8 0340A0E3 	 mov ra, #3 @ 00000003
 7237              	@ SP      P23
 7238 44bc 5C408AE5 	 str ra, [rp, #+92] @ 0000005C
 7239              	@ XCH
 7240 44c0 0410A0E1 	 mov r1, ra
 7241 44c4 0540A0E1 	 mov ra, rb
ARM GAS  temps/cmpltest.s 			page 129


 7242 44c8 0150A0E1 	 mov rb, r1
 7243              	@ KPG     P19 G208
 7244 44cc 40139BE5 	 ldr r1, [rg, #+832] @ 00000340
 7245 44d0 4C208AE2 	 add r2, rp, #76 @ 0000004C
 7246 44d4 0FE0A0E1 	 mov lr, pc
 7247 44d8 01F0A0E1 	 mov pc, r1
 7248              	@ L       K10
 7249 44dc 0A40A0E3 	 mov ra, #10 @ 0000000A
 7250              	@ SG      G250
 7251 44e0 E8438BE5 	 str ra, [rg, #+1000] @ 000003E8
 7252              	@ ATBL    K5
 7253 44e4 0450A0E1 	 mov rb, ra
 7254 44e8 0540A0E3 	 mov ra, #5 @ 00000005
 7255              	@ LSH
 7256 44ec 1F0054E3 	 cmp ra, #31
 7257 44f0 0050A083 	 movhi rb, #0
 7258 44f4 1544A0E1 	 mov ra, rb, lsl ra
 7259              	@ SG      G251
 7260 44f8 EC438BE5 	 str ra, [rg, #+1004] @ 000003EC
 7261              	@ LG      G250
 7262 44fc E8439BE5 	 ldr ra, [rg, #+1000] @ 000003E8
 7263              	@ ATC
 7264 4500 0460A0E1 	 mov rc, ra
 7265              	@ LG      G253
 7266 4504 F4439BE5 	 ldr ra, [rg, #+1012] @ 000003F4
 7267              	@ ATBL    K4
 7268 4508 0450A0E1 	 mov rb, ra
 7269 450c 0440A0E3 	 mov ra, #4 @ 00000004
 7270              	@ PBYT
 7271 4510 0561C4E7 	 strb rc, [ra, rb, lsl #2]
 7272              	@ ATBLG   G253
 7273 4514 0450A0E1 	 mov rb, ra
 7274 4518 F4439BE5 	 ldr ra, [rg, #+1012] @ 000003F4
 7275              	@ XGBYT
 7276 451c 0441D5E7 	 ldrb ra, [rb, ra, lsl #2]
 7277              	@ ATB
 7278 4520 0450A0E1 	 mov rb, ra
 7279              	@ L       K10
 7280 4524 0A40A0E3 	 mov ra, #10 @ 0000000A
 7281              	@ SP      P23
 7282 4528 5C408AE5 	 str ra, [rp, #+92] @ 0000005C
 7283              	@ XCH
 7284 452c 0410A0E1 	 mov r1, ra
 7285 4530 0540A0E1 	 mov ra, rb
 7286 4534 0150A0E1 	 mov rb, r1
 7287              	@ KPG     P19 G208
 7288 4538 40139BE5 	 ldr r1, [rg, #+832] @ 00000340
 7289 453c 4C208AE2 	 add r2, rp, #76 @ 0000004C
 7290 4540 0FE0A0E1 	 mov lr, pc
 7291 4544 01F0A0E1 	 mov pc, r1
 7292              	@ L       K100
 7293 4548 6440A0E3 	 mov ra, #100 @ 00000064
 7294              	@ SG      G250
 7295 454c E8438BE5 	 str ra, [rg, #+1000] @ 000003E8
 7296              	@ L       K101
 7297 4550 6540A0E3 	 mov ra, #101 @ 00000065
 7298              	@ SG      G251
ARM GAS  temps/cmpltest.s 			page 130


 7299 4554 EC438BE5 	 str ra, [rg, #+1004] @ 000003EC
 7300              	@ L       K300
 7301 4558 4B4FA0E3 	 mov ra, #300 @ 0000012C
 7302              	@ SG      G401
 7303 455c 44468BE5 	 str ra, [rg, #+1604] @ 00000644
 7304              	@ IKG     K1 G250
 7305 4560 E8439BE5 	 ldr ra, [rg, #+1000] @ 000003E8
 7306 4564 014084E2 	 add ra, ra, #1 @ 00000001
 7307 4568 E8438BE5 	 str ra, [rg, #+1000] @ 000003E8
 7308              	@ L       K101
 7309 456c 6540A0E3 	 mov ra, #101 @ 00000065
 7310              	@ SP      P23
 7311 4570 5C408AE5 	 str ra, [rp, #+92] @ 0000005C
 7312              	@ LG      G250
 7313 4574 E8439BE5 	 ldr ra, [rg, #+1000] @ 000003E8
 7314              	@ KPG     P19 G208
 7315 4578 40139BE5 	 ldr r1, [rg, #+832] @ 00000340
 7316 457c 4C208AE2 	 add r2, rp, #76 @ 0000004C
 7317 4580 0FE0A0E1 	 mov lr, pc
 7318 4584 01F0A0E1 	 mov pc, r1
 7319              	@ LG      G251
 7320 4588 EC439BE5 	 ldr ra, [rg, #+1004] @ 000003EC
 7321              	@ IG      G250
 7322 458c E8139BE5 	 ldr r1, [rg, #+1000] @ 000003E8
 7323 4590 044081E0 	 add ra, r1, ra
 7324 4594 E8438BE5 	 str ra, [rg, #+1000] @ 000003E8
 7325              	@ L       K202
 7326 4598 CA40A0E3 	 mov ra, #202 @ 000000CA
 7327              	@ SP      P23
 7328 459c 5C408AE5 	 str ra, [rp, #+92] @ 0000005C
 7329              	@ LG      G250
 7330 45a0 E8439BE5 	 ldr ra, [rg, #+1000] @ 000003E8
 7331              	@ KPG     P19 G208
 7332 45a4 40139BE5 	 ldr r1, [rg, #+832] @ 00000340
 7333 45a8 4C208AE2 	 add r2, rp, #76 @ 0000004C
 7334 45ac 0FE0A0E1 	 mov lr, pc
 7335 45b0 01F0A0E1 	 mov pc, r1
 7336              	@ LG      G251
 7337 45b4 EC439BE5 	 ldr ra, [rg, #+1004] @ 000003EC
 7338              	@ IG      G401
 7339 45b8 44169BE5 	 ldr r1, [rg, #+1604] @ 00000644
 7340 45bc 044081E0 	 add ra, r1, ra
 7341 45c0 44468BE5 	 str ra, [rg, #+1604] @ 00000644
 7342              	@ L       K401
 7343 45c4 9140A0E3 	 mov ra, #145 @ 00000091
 7344 45c8 014C84E3 	 orr ra, ra, #256 @ 00000100
 7345              	@ SP      P23
 7346 45cc 5C408AE5 	 str ra, [rp, #+92] @ 0000005C
 7347              	@ LG      G401
 7348 45d0 44469BE5 	 ldr ra, [rg, #+1604] @ 00000644
 7349              	@ KPG     P19 G208
 7350 45d4 40139BE5 	 ldr r1, [rg, #+832] @ 00000340
 7351 45d8 4C208AE2 	 add r2, rp, #76 @ 0000004C
 7352 45dc 0FE0A0E1 	 mov lr, pc
 7353 45e0 01F0A0E1 	 mov pc, r1
 7354              	@ L       K8
 7355 45e4 0840A0E3 	 mov ra, #8 @ 00000008
ARM GAS  temps/cmpltest.s 			page 131


 7356              	@ SG      G401
 7357 45e8 44468BE5 	 str ra, [rg, #+1604] @ 00000644
 7358              	@ L       K3
 7359 45ec 0340A0E3 	 mov ra, #3 @ 00000003
 7360              	@ SG      G251
 7361 45f0 EC438BE5 	 str ra, [rg, #+1004] @ 000003EC
 7362              	@ ATBLG   G401
 7363 45f4 0450A0E1 	 mov rb, ra
 7364 45f8 44469BE5 	 ldr ra, [rg, #+1604] @ 00000644
 7365              	@ XREM
 7366 45fc 0500A0E1 	 mov r0, rb
 7367 4600 0410A0E1 	 mov r1, ra
 7368 4604 00209FE5 	 ldr r2, [pc]
 7369 4608 0FF0A0E1 	 mov pc, pc
 7370 460c 00000000 	 .long divrem
 7371 4610 0FE0A0E1 	 mov lr, pc
 7372 4614 02F0A0E1 	 mov pc, r2
 7373 4618 0140A0E1 	 mov ra, r1
 7374              	@ SG      G250
 7375 461c E8438BE5 	 str ra, [rg, #+1000] @ 000003E8
 7376              	@ L       K2
 7377 4620 0240A0E3 	 mov ra, #2 @ 00000002
 7378              	@ SP      P23
 7379 4624 5C408AE5 	 str ra, [rp, #+92] @ 0000005C
 7380              	@ LG      G250
 7381 4628 E8439BE5 	 ldr ra, [rg, #+1000] @ 000003E8
 7382              	@ KPG     P19 G208
 7383 462c 40139BE5 	 ldr r1, [rg, #+832] @ 00000340
 7384 4630 4C208AE2 	 add r2, rp, #76 @ 0000004C
 7385 4634 0FE0A0E1 	 mov lr, pc
 7386 4638 01F0A0E1 	 mov pc, r1
 7387              	@ L       K20
 7388 463c 1440A0E3 	 mov ra, #20 @ 00000014
 7389              	@ SG      G401
 7390 4640 44468BE5 	 str ra, [rg, #+1604] @ 00000644
 7391              	@ L       K12
 7392 4644 0C40A0E3 	 mov ra, #12 @ 0000000C
 7393              	@ SG      G251
 7394 4648 EC438BE5 	 str ra, [rg, #+1004] @ 000003EC
 7395              	@ ATBLG   G401
 7396 464c 0450A0E1 	 mov rb, ra
 7397 4650 44469BE5 	 ldr ra, [rg, #+1604] @ 00000644
 7398              	@ XSUB
 7399 4654 054044E0 	 sub ra, ra, rb
 7400              	@ SG      G250
 7401 4658 E8438BE5 	 str ra, [rg, #+1000] @ 000003E8
 7402              	@ L       K8
 7403 465c 0840A0E3 	 mov ra, #8 @ 00000008
 7404              	@ SP      P23
 7405 4660 5C408AE5 	 str ra, [rp, #+92] @ 0000005C
 7406              	@ LG      G250
 7407 4664 E8439BE5 	 ldr ra, [rg, #+1000] @ 000003E8
 7408              	@ KPG     P19 G208
 7409 4668 40139BE5 	 ldr r1, [rg, #+832] @ 00000340
 7410 466c 4C208AE2 	 add r2, rp, #76 @ 0000004C
 7411 4670 0FE0A0E1 	 mov lr, pc
 7412 4674 01F0A0E1 	 mov pc, r1
ARM GAS  temps/cmpltest.s 			page 132


 7413              	@ L       K850
 7414 4678 5240A0E3 	 mov ra, #82 @ 00000052
 7415 467c 034C84E3 	 orr ra, ra, #768 @ 00000300
 7416              	@ SG      G203
 7417 4680 2C438BE5 	 str ra, [rg, #+812] @ 0000032C
 7418              	@ L       K4660
 7419 4684 8D4FA0E3 	 mov ra, #564 @ 00000234
 7420 4688 014A84E3 	 orr ra, ra, #4096 @ 00001000
 7421              	@ SP      P23
 7422 468c 5C408AE5 	 str ra, [rp, #+92] @ 0000005C
 7423              	@ KPG     P19 G208
 7424 4690 40139BE5 	 ldr r1, [rg, #+832] @ 00000340
 7425 4694 4C208AE2 	 add r2, rp, #76 @ 0000004C
 7426 4698 0FE0A0E1 	 mov lr, pc
 7427 469c 01F0A0E1 	 mov pc, r1
 7428              	@ LSTR    M22
 7429 46a0 4E4E8FE2 	 adrl ra, MA22
 7429      0000A0E1 
 7430 46a8 2441A0E1 	 mov ra, ra, lsr #2
 7431              	@ ATBL    K0
 7432 46ac 0450A0E1 	 mov rb, ra
 7433 46b0 0040A0E3 	 mov ra, #0 @ 00000000
 7434              	@ GBYT
 7435 46b4 0541D4E7 	 ldrb ra, [ra, rb, lsl #2]
 7436              	@ ATB
 7437 46b8 0450A0E1 	 mov rb, ra
 7438              	@ L       K3
 7439 46bc 0340A0E3 	 mov ra, #3 @ 00000003
 7440              	@ SP      P23
 7441 46c0 5C408AE5 	 str ra, [rp, #+92] @ 0000005C
 7442              	@ XCH
 7443 46c4 0410A0E1 	 mov r1, ra
 7444 46c8 0540A0E1 	 mov ra, rb
 7445 46cc 0150A0E1 	 mov rb, r1
 7446              	@ KPG     P19 G208
 7447 46d0 40139BE5 	 ldr r1, [rg, #+832] @ 00000340
 7448 46d4 4C208AE2 	 add r2, rp, #76 @ 0000004C
 7449 46d8 0FE0A0E1 	 mov lr, pc
 7450 46dc 01F0A0E1 	 mov pc, r1
 7451              	@ LSTR    M23
 7452 46e0 A4408FE2 	 adrl ra, MA23
 7452      044C84E2 
 7453 46e8 2441A0E1 	 mov ra, ra, lsr #2
 7454              	@ ATBL    K1
 7455 46ec 0450A0E1 	 mov rb, ra
 7456 46f0 0140A0E3 	 mov ra, #1 @ 00000001
 7457              	@ GBYT
 7458 46f4 0541D4E7 	 ldrb ra, [ra, rb, lsl #2]
 7459              	@ ATB
 7460 46f8 0450A0E1 	 mov rb, ra
 7461              	@ L       K225
 7462 46fc E140A0E3 	 mov ra, #225 @ 000000E1
 7463              	@ SP      P23
 7464 4700 5C408AE5 	 str ra, [rp, #+92] @ 0000005C
 7465              	@ XCH
 7466 4704 0410A0E1 	 mov r1, ra
 7467 4708 0540A0E1 	 mov ra, rb
ARM GAS  temps/cmpltest.s 			page 133


 7468 470c 0150A0E1 	 mov rb, r1
 7469              	@ KPG     P19 G208
 7470 4710 40139BE5 	 ldr r1, [rg, #+832] @ 00000340
 7471 4714 4C208AE2 	 add r2, rp, #76 @ 0000004C
 7472 4718 0FE0A0E1 	 mov lr, pc
 7473 471c 01F0A0E1 	 mov pc, r1
 7474              	@ LSTR    M24
 7475 4720 68408FE2 	 adrl ra, MA24
 7475      044C84E2 
 7476 4728 2441A0E1 	 mov ra, ra, lsr #2
 7477              	@ ATBL    K2
 7478 472c 0450A0E1 	 mov rb, ra
 7479 4730 0240A0E3 	 mov ra, #2 @ 00000002
 7480              	@ GBYT
 7481 4734 0541D4E7 	 ldrb ra, [ra, rb, lsl #2]
 7482              	@ ATB
 7483 4738 0450A0E1 	 mov rb, ra
 7484              	@ L       K136
 7485 473c 8840A0E3 	 mov ra, #136 @ 00000088
 7486              	@ SP      P23
 7487 4740 5C408AE5 	 str ra, [rp, #+92] @ 0000005C
 7488              	@ XCH
 7489 4744 0410A0E1 	 mov r1, ra
 7490 4748 0540A0E1 	 mov ra, rb
 7491 474c 0150A0E1 	 mov rb, r1
 7492              	@ KPG     P19 G208
 7493 4750 40139BE5 	 ldr r1, [rg, #+832] @ 00000340
 7494 4754 4C208AE2 	 add r2, rp, #76 @ 0000004C
 7495 4758 0FE0A0E1 	 mov lr, pc
 7496 475c 01F0A0E1 	 mov pc, r1
 7497              	@ LSTR    M25
 7498 4760 2C408FE2 	 adrl ra, MA25
 7498      044C84E2 
 7499 4768 2441A0E1 	 mov ra, ra, lsr #2
 7500              	@ ATBL    K3
 7501 476c 0450A0E1 	 mov rb, ra
 7502 4770 0340A0E3 	 mov ra, #3 @ 00000003
 7503              	@ GBYT
 7504 4774 0541D4E7 	 ldrb ra, [ra, rb, lsl #2]
 7505              	@ ATB
 7506 4778 0450A0E1 	 mov rb, ra
 7507              	@ L       K180
 7508 477c B440A0E3 	 mov ra, #180 @ 000000B4
 7509              	@ SP      P23
 7510 4780 5C408AE5 	 str ra, [rp, #+92] @ 0000005C
 7511              	@ XCH
 7512 4784 0410A0E1 	 mov r1, ra
 7513 4788 0540A0E1 	 mov ra, rb
 7514 478c 0150A0E1 	 mov rb, r1
 7515              	@ KPG     P19 G208
 7516 4790 40139BE5 	 ldr r1, [rg, #+832] @ 00000340
 7517 4794 4C208AE2 	 add r2, rp, #76 @ 0000004C
 7518 4798 0FE0A0E1 	 mov lr, pc
 7519 479c 01F0A0E1 	 mov pc, r1
 7520              	@ LW      M27
 7521 47a0 EF4F8FE2 	 adrl ra, MA27
 7521      0000A0E1 
ARM GAS  temps/cmpltest.s 			page 134


 7522 47a8 004094E5 	 ldr ra, [ra]
 7523              	@ SP      P23
 7524 47ac 5C408AE5 	 str ra, [rp, #+92] @ 0000005C
 7525              	@ LW      M26
 7526 47b0 EA4F8FE2 	 adrl ra, MA26
 7526      0000A0E1 
 7527 47b8 004094E5 	 ldr ra, [ra]
 7528              	@ KPG     P19 G208
 7529 47bc 40139BE5 	 ldr r1, [rg, #+832] @ 00000340
 7530 47c0 4C208AE2 	 add r2, rp, #76 @ 0000004C
 7531 47c4 0FE0A0E1 	 mov lr, pc
 7532 47c8 01F0A0E1 	 mov pc, r1
 7533              	@ LSTR    M28
 7534 47cc F14F8FE2 	 adrl ra, MA28
 7534      0000A0E1 
 7535 47d4 2441A0E1 	 mov ra, ra, lsr #2
 7536              	@ ATBL    K0
 7537 47d8 0450A0E1 	 mov rb, ra
 7538 47dc 0040A0E3 	 mov ra, #0 @ 00000000
 7539              	@ GBYT
 7540 47e0 0541D4E7 	 ldrb ra, [ra, rb, lsl #2]
 7541              	@ ATB
 7542 47e4 0450A0E1 	 mov rb, ra
 7543              	@ L       K6
 7544 47e8 0640A0E3 	 mov ra, #6 @ 00000006
 7545              	@ SP      P23
 7546 47ec 5C408AE5 	 str ra, [rp, #+92] @ 0000005C
 7547              	@ XCH
 7548 47f0 0410A0E1 	 mov r1, ra
 7549 47f4 0540A0E1 	 mov ra, rb
 7550 47f8 0150A0E1 	 mov rb, r1
 7551              	@ KPG     P19 G208
 7552 47fc 40139BE5 	 ldr r1, [rg, #+832] @ 00000340
 7553 4800 4C208AE2 	 add r2, rp, #76 @ 0000004C
 7554 4804 0FE0A0E1 	 mov lr, pc
 7555 4808 01F0A0E1 	 mov pc, r1
 7556              	@ LSTR    M29
 7557 480c E34F8FE2 	 adrl ra, MA29
 7557      0000A0E1 
 7558 4814 2441A0E1 	 mov ra, ra, lsr #2
 7559              	@ ATBL    K1
 7560 4818 0450A0E1 	 mov rb, ra
 7561 481c 0140A0E3 	 mov ra, #1 @ 00000001
 7562              	@ GBYT
 7563 4820 0541D4E7 	 ldrb ra, [ra, rb, lsl #2]
 7564              	@ ATB
 7565 4824 0450A0E1 	 mov rb, ra
 7566              	@ L       K252
 7567 4828 FC40A0E3 	 mov ra, #252 @ 000000FC
 7568              	@ SP      P23
 7569 482c 5C408AE5 	 str ra, [rp, #+92] @ 0000005C
 7570              	@ XCH
 7571 4830 0410A0E1 	 mov r1, ra
 7572 4834 0540A0E1 	 mov ra, rb
 7573 4838 0150A0E1 	 mov rb, r1
 7574              	@ KPG     P19 G208
 7575 483c 40139BE5 	 ldr r1, [rg, #+832] @ 00000340
ARM GAS  temps/cmpltest.s 			page 135


 7576 4840 4C208AE2 	 add r2, rp, #76 @ 0000004C
 7577 4844 0FE0A0E1 	 mov lr, pc
 7578 4848 01F0A0E1 	 mov pc, r1
 7579              	@ LSTR    M30
 7580 484c D54F8FE2 	 adrl ra, MA30
 7580      0000A0E1 
 7581 4854 2441A0E1 	 mov ra, ra, lsr #2
 7582              	@ ATBL    K2
 7583 4858 0450A0E1 	 mov rb, ra
 7584 485c 0240A0E3 	 mov ra, #2 @ 00000002
 7585              	@ GBYT
 7586 4860 0541D4E7 	 ldrb ra, [ra, rb, lsl #2]
 7587              	@ ATB
 7588 4864 0450A0E1 	 mov rb, ra
 7589              	@ L       K146
 7590 4868 9240A0E3 	 mov ra, #146 @ 00000092
 7591              	@ SP      P23
 7592 486c 5C408AE5 	 str ra, [rp, #+92] @ 0000005C
 7593              	@ XCH
 7594 4870 0410A0E1 	 mov r1, ra
 7595 4874 0540A0E1 	 mov ra, rb
 7596 4878 0150A0E1 	 mov rb, r1
 7597              	@ KPG     P19 G208
 7598 487c 40139BE5 	 ldr r1, [rg, #+832] @ 00000340
 7599 4880 4C208AE2 	 add r2, rp, #76 @ 0000004C
 7600 4884 0FE0A0E1 	 mov lr, pc
 7601 4888 01F0A0E1 	 mov pc, r1
 7602              	@ LSTR    M31
 7603 488c C74F8FE2 	 adrl ra, MA31
 7603      0000A0E1 
 7604 4894 2441A0E1 	 mov ra, ra, lsr #2
 7605              	@ ATBL    K3
 7606 4898 0450A0E1 	 mov rb, ra
 7607 489c 0340A0E3 	 mov ra, #3 @ 00000003
 7608              	@ GBYT
 7609 48a0 0541D4E7 	 ldrb ra, [ra, rb, lsl #2]
 7610              	@ ATB
 7611 48a4 0450A0E1 	 mov rb, ra
 7612              	@ L       K141
 7613 48a8 8D40A0E3 	 mov ra, #141 @ 0000008D
 7614              	@ SP      P23
 7615 48ac 5C408AE5 	 str ra, [rp, #+92] @ 0000005C
 7616              	@ XCH
 7617 48b0 0410A0E1 	 mov r1, ra
 7618 48b4 0540A0E1 	 mov ra, rb
 7619 48b8 0150A0E1 	 mov rb, r1
 7620              	@ KPG     P19 G208
 7621 48bc 40139BE5 	 ldr r1, [rg, #+832] @ 00000340
 7622 48c0 4C208AE2 	 add r2, rp, #76 @ 0000004C
 7623 48c4 0FE0A0E1 	 mov lr, pc
 7624 48c8 01F0A0E1 	 mov pc, r1
 7625              	@ LSTR    M32
 7626 48cc B94F8FE2 	 adrl ra, MA32
 7626      0000A0E1 
 7627 48d4 2441A0E1 	 mov ra, ra, lsr #2
 7628              	@ ATBL    K4
 7629 48d8 0450A0E1 	 mov rb, ra
ARM GAS  temps/cmpltest.s 			page 136


 7630 48dc 0440A0E3 	 mov ra, #4 @ 00000004
 7631              	@ GBYT
 7632 48e0 0541D4E7 	 ldrb ra, [ra, rb, lsl #2]
 7633              	@ ATB
 7634 48e4 0450A0E1 	 mov rb, ra
 7635              	@ L       K133
 7636 48e8 8540A0E3 	 mov ra, #133 @ 00000085
 7637              	@ SP      P23
 7638 48ec 5C408AE5 	 str ra, [rp, #+92] @ 0000005C
 7639              	@ XCH
 7640 48f0 0410A0E1 	 mov r1, ra
 7641 48f4 0540A0E1 	 mov ra, rb
 7642 48f8 0150A0E1 	 mov rb, r1
 7643              	@ KPG     P19 G208
 7644 48fc 40139BE5 	 ldr r1, [rg, #+832] @ 00000340
 7645 4900 4C208AE2 	 add r2, rp, #76 @ 0000004C
 7646 4904 0FE0A0E1 	 mov lr, pc
 7647 4908 01F0A0E1 	 mov pc, r1
 7648              	@ LSTR    M33
 7649 490c AB4F8FE2 	 adrl ra, MA33
 7649      0000A0E1 
 7650 4914 2441A0E1 	 mov ra, ra, lsr #2
 7651              	@ ATBL    K5
 7652 4918 0450A0E1 	 mov rb, ra
 7653 491c 0540A0E3 	 mov ra, #5 @ 00000005
 7654              	@ GBYT
 7655 4920 0541D4E7 	 ldrb ra, [ra, rb, lsl #2]
 7656              	@ ATB
 7657 4924 0450A0E1 	 mov rb, ra
 7658              	@ L       K153
 7659 4928 9940A0E3 	 mov ra, #153 @ 00000099
 7660              	@ SP      P23
 7661 492c 5C408AE5 	 str ra, [rp, #+92] @ 0000005C
 7662              	@ XCH
 7663 4930 0410A0E1 	 mov r1, ra
 7664 4934 0540A0E1 	 mov ra, rb
 7665 4938 0150A0E1 	 mov rb, r1
 7666              	@ KPG     P19 G208
 7667 493c 40139BE5 	 ldr r1, [rg, #+832] @ 00000340
 7668 4940 4C208AE2 	 add r2, rp, #76 @ 0000004C
 7669 4944 0FE0A0E1 	 mov lr, pc
 7670 4948 01F0A0E1 	 mov pc, r1
 7671              	@ LSTR    M34
 7672 494c 9D4F8FE2 	 adrl ra, MA34
 7672      0000A0E1 
 7673 4954 2441A0E1 	 mov ra, ra, lsr #2
 7674              	@ ATBL    K6
 7675 4958 0450A0E1 	 mov rb, ra
 7676 495c 0640A0E3 	 mov ra, #6 @ 00000006
 7677              	@ GBYT
 7678 4960 0541D4E7 	 ldrb ra, [ra, rb, lsl #2]
 7679              	@ ATB
 7680 4964 0450A0E1 	 mov rb, ra
 7681              	@ L       K184
 7682 4968 B840A0E3 	 mov ra, #184 @ 000000B8
 7683              	@ SP      P23
 7684 496c 5C408AE5 	 str ra, [rp, #+92] @ 0000005C
ARM GAS  temps/cmpltest.s 			page 137


 7685              	@ XCH
 7686 4970 0410A0E1 	 mov r1, ra
 7687 4974 0540A0E1 	 mov ra, rb
 7688 4978 0150A0E1 	 mov rb, r1
 7689              	@ KPG     P19 G208
 7690 497c 40139BE5 	 ldr r1, [rg, #+832] @ 00000340
 7691 4980 4C208AE2 	 add r2, rp, #76 @ 0000004C
 7692 4984 0FE0A0E1 	 mov lr, pc
 7693 4988 01F0A0E1 	 mov pc, r1
 7694              	@ L       K4566
 7695 498c D640A0E3 	 mov ra, #214 @ 000000D6
 7696 4990 114C84E3 	 orr ra, ra, #4352 @ 00001100
 7697              	@ SP      P23
 7698 4994 5C408AE5 	 str ra, [rp, #+92] @ 0000005C
 7699              	@ KPG     P19 G208
 7700 4998 40139BE5 	 ldr r1, [rg, #+832] @ 00000340
 7701 499c 4C208AE2 	 add r2, rp, #76 @ 0000004C
 7702 49a0 0FE0A0E1 	 mov lr, pc
 7703 49a4 01F0A0E1 	 mov pc, r1
 7704              	@ LSTR    M35
 7705 49a8 224E8FE2 	 adrl ra, MA35
 7705      0000A0E1 
 7706 49b0 2441A0E1 	 mov ra, ra, lsr #2
 7707              	@ ATBL    K0
 7708 49b4 0450A0E1 	 mov rb, ra
 7709 49b8 0040A0E3 	 mov ra, #0 @ 00000000
 7710              	@ GBYT
 7711 49bc 0541D4E7 	 ldrb ra, [ra, rb, lsl #2]
 7712              	@ ATB
 7713 49c0 0450A0E1 	 mov rb, ra
 7714              	@ L       K2
 7715 49c4 0240A0E3 	 mov ra, #2 @ 00000002
 7716              	@ SP      P23
 7717 49c8 5C408AE5 	 str ra, [rp, #+92] @ 0000005C
 7718              	@ XCH
 7719 49cc 0410A0E1 	 mov r1, ra
 7720 49d0 0540A0E1 	 mov ra, rb
 7721 49d4 0150A0E1 	 mov rb, r1
 7722              	@ KPG     P19 G208
 7723 49d8 40139BE5 	 ldr r1, [rg, #+832] @ 00000340
 7724 49dc 4C208AE2 	 add r2, rp, #76 @ 0000004C
 7725 49e0 0FE0A0E1 	 mov lr, pc
 7726 49e4 01F0A0E1 	 mov pc, r1
 7727              	@ LSTR    M36
 7728 49e8 794F8FE2 	 adrl ra, MA36
 7728      0000A0E1 
 7729 49f0 2441A0E1 	 mov ra, ra, lsr #2
 7730              	@ ATBL    K1
 7731 49f4 0450A0E1 	 mov rb, ra
 7732 49f8 0140A0E3 	 mov ra, #1 @ 00000001
 7733              	@ GBYT
 7734 49fc 0541D4E7 	 ldrb ra, [ra, rb, lsl #2]
 7735              	@ ATB
 7736 4a00 0450A0E1 	 mov rb, ra
 7737              	@ L       K226
 7738 4a04 E240A0E3 	 mov ra, #226 @ 000000E2
 7739              	@ SP      P23
ARM GAS  temps/cmpltest.s 			page 138


 7740 4a08 5C408AE5 	 str ra, [rp, #+92] @ 0000005C
 7741              	@ XCH
 7742 4a0c 0410A0E1 	 mov r1, ra
 7743 4a10 0540A0E1 	 mov ra, rb
 7744 4a14 0150A0E1 	 mov rb, r1
 7745              	@ KPG     P19 G208
 7746 4a18 40139BE5 	 ldr r1, [rg, #+832] @ 00000340
 7747 4a1c 4C208AE2 	 add r2, rp, #76 @ 0000004C
 7748 4a20 0FE0A0E1 	 mov lr, pc
 7749 4a24 01F0A0E1 	 mov pc, r1
 7750              	@ LSTR    M37
 7751 4a28 6A4F8FE2 	 adrl ra, MA37
 7751      0000A0E1 
 7752 4a30 2441A0E1 	 mov ra, ra, lsr #2
 7753              	@ ATBL    K2
 7754 4a34 0450A0E1 	 mov rb, ra
 7755 4a38 0240A0E3 	 mov ra, #2 @ 00000002
 7756              	@ GBYT
 7757 4a3c 0541D4E7 	 ldrb ra, [ra, rb, lsl #2]
 7758              	@ ATB
 7759 4a40 0450A0E1 	 mov rb, ra
 7760              	@ L       K205
 7761 4a44 CD40A0E3 	 mov ra, #205 @ 000000CD
 7762              	@ SP      P23
 7763 4a48 5C408AE5 	 str ra, [rp, #+92] @ 0000005C
 7764              	@ XCH
 7765 4a4c 0410A0E1 	 mov r1, ra
 7766 4a50 0540A0E1 	 mov ra, rb
 7767 4a54 0150A0E1 	 mov rb, r1
 7768              	@ KPG     P19 G208
 7769 4a58 40139BE5 	 ldr r1, [rg, #+832] @ 00000340
 7770 4a5c 4C208AE2 	 add r2, rp, #76 @ 0000004C
 7771 4a60 0FE0A0E1 	 mov lr, pc
 7772 4a64 01F0A0E1 	 mov pc, r1
 7773              	@ L       K1000
 7774 4a68 FA4FA0E3 	 mov ra, #1000 @ 000003E8
 7775              	@ SG      G203
 7776 4a6c 2C438BE5 	 str ra, [rg, #+812] @ 0000032C
 7777              	@ LF      L27
 7778 4a70 624F8FE2 	 adrl ra, LA27
 7778      0000A0E1 
 7779              	@ K       P19
 7780 4a78 4C208AE2 	 add r2, rp, #76 @ 0000004C
 7781 4a7c 0410A0E1 	 mov r1, ra
 7782 4a80 0540A0E1 	 mov ra, rb
 7783 4a84 0FE0A0E1 	 mov lr, pc
 7784 4a88 01F0A0E1 	 mov pc, r1
 7785              	@ LF      L3
 7786 4a8c E8404FE2 	 adrl ra, LA3
 7786      494C44E2 
 7787              	@ K       P19
 7788 4a94 4C208AE2 	 add r2, rp, #76 @ 0000004C
 7789 4a98 0410A0E1 	 mov r1, ra
 7790 4a9c 0540A0E1 	 mov ra, rb
 7791 4aa0 0FE0A0E1 	 mov lr, pc
 7792 4aa4 01F0A0E1 	 mov pc, r1
 7793              	@ LG      G206
ARM GAS  temps/cmpltest.s 			page 139


 7794 4aa8 38439BE5 	 ldr ra, [rg, #+824] @ 00000338
 7795              	@ ATB
 7796 4aac 0450A0E1 	 mov rb, ra
 7797              	@ LF      L5
 7798 4ab0 0C404FE2 	 adrl ra, LA5
 7798      484C44E2 
 7799              	@ K       P19
 7800 4ab8 4C208AE2 	 add r2, rp, #76 @ 0000004C
 7801 4abc 0410A0E1 	 mov r1, ra
 7802 4ac0 0540A0E1 	 mov ra, rb
 7803 4ac4 0FE0A0E1 	 mov lr, pc
 7804 4ac8 01F0A0E1 	 mov pc, r1
 7805              	@ LSTR    M38
 7806 4acc 424F8FE2 	 adrl ra, MA38
 7806      0000A0E1 
 7807 4ad4 2441A0E1 	 mov ra, ra, lsr #2
 7808              	@ ATB
 7809 4ad8 0450A0E1 	 mov rb, ra
 7810              	@ LF      L2
 7811 4adc BC404FE2 	 adrl ra, LA2
 7811      4A4C44E2 
 7812              	@ K       P19
 7813 4ae4 4C208AE2 	 add r2, rp, #76 @ 0000004C
 7814 4ae8 0410A0E1 	 mov r1, ra
 7815 4aec 0540A0E1 	 mov ra, rb
 7816 4af0 0FE0A0E1 	 mov lr, pc
 7817 4af4 01F0A0E1 	 mov pc, r1
 7818              	@ LG      G204
 7819 4af8 30439BE5 	 ldr ra, [rg, #+816] @ 00000330
 7820              	@ ATB
 7821 4afc 0450A0E1 	 mov rb, ra
 7822              	@ LF      L5
 7823 4b00 5C404FE2 	 adrl ra, LA5
 7823      484C44E2 
 7824              	@ K       P19
 7825 4b08 4C208AE2 	 add r2, rp, #76 @ 0000004C
 7826 4b0c 0410A0E1 	 mov r1, ra
 7827 4b10 0540A0E1 	 mov ra, rb
 7828 4b14 0FE0A0E1 	 mov lr, pc
 7829 4b18 01F0A0E1 	 mov pc, r1
 7830              	@ LSTR    M39
 7831 4b1c CC408FE2 	 adrl ra, MA39
 7831      0000A0E1 
 7832 4b24 2441A0E1 	 mov ra, ra, lsr #2
 7833              	@ ATB
 7834 4b28 0450A0E1 	 mov rb, ra
 7835              	@ LF      L2
 7836 4b2c 0C404FE2 	 adrl ra, LA2
 7836      4B4C44E2 
 7837              	@ K       P19
 7838 4b34 4C208AE2 	 add r2, rp, #76 @ 0000004C
 7839 4b38 0410A0E1 	 mov r1, ra
 7840 4b3c 0540A0E1 	 mov ra, rb
 7841 4b40 0FE0A0E1 	 mov lr, pc
 7842 4b44 01F0A0E1 	 mov pc, r1
 7843              	@ RTN
 7844 4b48 00849AE8 	 ldmia rp, {rp, pc}
ARM GAS  temps/cmpltest.s 			page 140


 7845              	 .ltorg
 7846              	
 7847              	@ CONST   M17 W100000000
 7848              	MA17:
 7849 4b4c 00E1F505 	 .long 100000000
 7850              	@ CONST   M18 W100000000
 7851              	MA18:
 7852 4b50 00E1F505 	 .long 100000000
 7853              	@ CONST   M19 W100010000
 7854              	MA19:
 7855 4b54 1008F605 	 .long 100010000
 7856              	@ CONST   M20 W100000000
 7857              	MA20:
 7858 4b58 00E1F505 	 .long 100000000
 7859              	@ CONST   M21 W-99990000
 7860              	MA21:
 7861 4b5c 10460AFA 	 .long -99990000
 7862              	@ CONST   M26 W305419896
 7863              	MA26:
 7864 4b60 78563412 	 .long 305419896
 7865              	@ CONST   M27 W305419896
 7866              	MA27:
 7867 4b64 78563412 	 .long 305419896
 7868              	@ STRING  M9 K18 C10 C67 C103 C116 C101 C115 C116 C101 C114 C32 C101 C110 C116 C101 C114 C101 C100 
 7869              	MA9:
 7870 4b68 120A4367 	 .byte  18, 10, 67,103
 7871 4b6c 74657374 	 .byte 116,101,115,116
 7872 4b70 65722065 	 .byte 101,114, 32,101
 7873 4b74 6E746572 	 .byte 110,116,101,114
 7874 4b78 65640A00 	 .byte 101,100, 10,  0
 7875              	@ STRING  M10 K11 C71 C79 C84 C79 C32 C69 C82 C82 C79 C82 C10
 7876              	MA10:
 7877 4b7c 0B474F54 	 .byte  11, 71, 79, 84
 7878 4b80 4F204552 	 .byte  79, 32, 69, 82
 7879 4b84 524F520A 	 .byte  82, 79, 82, 10
 7880              	@ STRING  M22 K3 C225 C136 C180
 7881              	MA22:
 7882 4b88 03E188B4 	 .byte   3,225,136,180
 7883              	@ STRING  M23 K3 C225 C136 C180
 7884              	MA23:
 7885 4b8c 03E188B4 	 .byte   3,225,136,180
 7886              	@ STRING  M24 K3 C225 C136 C180
 7887              	MA24:
 7888 4b90 03E188B4 	 .byte   3,225,136,180
 7889              	@ STRING  M25 K3 C225 C136 C180
 7890              	MA25:
 7891 4b94 03E188B4 	 .byte   3,225,136,180
 7892              	@ STRING  M28 K6 C252 C146 C141 C133 C153 C184
 7893              	MA28:
 7894 4b98 06FC928D 	 .byte   6,252,146,141
 7895 4b9c 8599B800 	 .byte 133,153,184,  0
 7896              	@ STRING  M29 K6 C252 C146 C141 C133 C153 C184
 7897              	MA29:
 7898 4ba0 06FC928D 	 .byte   6,252,146,141
 7899 4ba4 8599B800 	 .byte 133,153,184,  0
 7900              	@ STRING  M30 K6 C252 C146 C141 C133 C153 C184
 7901              	MA30:
ARM GAS  temps/cmpltest.s 			page 141


 7902 4ba8 06FC928D 	 .byte   6,252,146,141
 7903 4bac 8599B800 	 .byte 133,153,184,  0
 7904              	@ STRING  M31 K6 C252 C146 C141 C133 C153 C184
 7905              	MA31:
 7906 4bb0 06FC928D 	 .byte   6,252,146,141
 7907 4bb4 8599B800 	 .byte 133,153,184,  0
 7908              	@ STRING  M32 K6 C252 C146 C141 C133 C153 C184
 7909              	MA32:
 7910 4bb8 06FC928D 	 .byte   6,252,146,141
 7911 4bbc 8599B800 	 .byte 133,153,184,  0
 7912              	@ STRING  M33 K6 C252 C146 C141 C133 C153 C184
 7913              	MA33:
 7914 4bc0 06FC928D 	 .byte   6,252,146,141
 7915 4bc4 8599B800 	 .byte 133,153,184,  0
 7916              	@ STRING  M34 K6 C252 C146 C141 C133 C153 C184
 7917              	MA34:
 7918 4bc8 06FC928D 	 .byte   6,252,146,141
 7919 4bcc 8599B800 	 .byte 133,153,184,  0
 7920              	@ STRING  M35 K2 C226 C205
 7921              	MA35:
 7922 4bd0 02E2CD00 	 .byte   2,226,205,  0
 7923              	@ STRING  M36 K2 C226 C205
 7924              	MA36:
 7925 4bd4 02E2CD00 	 .byte   2,226,205,  0
 7926              	@ STRING  M37 K2 C226 C205
 7927              	MA37:
 7928 4bd8 02E2CD00 	 .byte   2,226,205,  0
 7929              	@ STRING  M38 K18 C32 C84 C69 C83 C84 C83 C32 C67 C79 C77 C80 C76 C69 C84 C69 C68 C44 C32
 7930              	MA38:
 7931 4bdc 12205445 	 .byte  18, 32, 84, 69
 7932 4be0 53545320 	 .byte  83, 84, 83, 32
 7933 4be4 434F4D50 	 .byte  67, 79, 77, 80
 7934 4be8 4C455445 	 .byte  76, 69, 84, 69
 7935 4bec 442C2000 	 .byte  68, 44, 32,  0
 7936              	@ STRING  M39 K12 C32 C70 C65 C73 C76 C85 C82 C69 C40 C83 C41 C10
 7937              	MA39:
 7938 4bf0 0C204641 	 .byte  12, 32, 70, 65
 7939 4bf4 494C5552 	 .byte  73, 76, 85, 82
 7940 4bf8 45285329 	 .byte  69, 40, 83, 41
 7941 4bfc 0A000000 	 .byte  10,  0,  0,  0
 7942              	
 7943              	@ Entry to: testslct
 7944              	@ ENTRY   K8 C116 C101 C115 C116 C115 C108 C99 C116
 7945              	@ LAB     L27
 7946              	
 7947              	LA27:
 7948 4c00 0044A2E8 	 stmia r2!, {r10,lr}
 7949 4c04 120082E8 	 stmia r2, {r1,ra}
 7950 4c08 08A042E2 	 sub rp, r2, #8
 7951              	@ LW      M40
 7952 4c0c ED4F8FE2 	 adrl ra, MA40
 7952      0000A0E1 
 7953 4c14 004094E5 	 ldr ra, [ra]
 7954              	@ SP      P3
 7955 4c18 0C408AE5 	 str ra, [rp, #+12] @ 0000000C
 7956              	@ LW      M41
 7957 4c1c EA4F8FE2 	 adrl ra, MA41
ARM GAS  temps/cmpltest.s 			page 142


 7957      0000A0E1 
 7958 4c24 004094E5 	 ldr ra, [ra]
 7959              	@ SP      P4
 7960 4c28 10408AE5 	 str ra, [rp, #+16] @ 00000010
 7961              	@ LP      P3
 7962 4c2c 0C409AE5 	 ldr ra, [rp, #+12] @ 0000000C
 7963              	@ SP      P5
 7964 4c30 14408AE5 	 str ra, [rp, #+20] @ 00000014
 7965              	@ LP      P4
 7966 4c34 10409AE5 	 ldr ra, [rp, #+16] @ 00000010
 7967              	@ SP      P6
 7968 4c38 18408AE5 	 str ra, [rp, #+24] @ 00000018
 7969              	@ LLP     P5
 7970 4c3c 0540A0E3 	 mov ra, #5 @ 00000005
 7971 4c40 2A4184E0 	 add ra, ra, rp, lsr #2
 7972              	@ SP      P7
 7973 4c44 1C408AE5 	 str ra, [rp, #+28] @ 0000001C
 7974              	@ LW      M42
 7975 4c48 0E4D8FE2 	 adrl ra, MA42
 7975      0000A0E1 
 7976 4c50 004094E5 	 ldr ra, [ra]
 7977              	@ SP      P12
 7978 4c54 30408AE5 	 str ra, [rp, #+48] @ 00000030
 7979              	@ LKP     K0 P7
 7980 4c58 1C409AE5 	 ldr ra, [rp, #+28] @ 0000001C
 7981 4c5c 0010A0E3 	 mov r1, #0 @ 00000000
 7982 4c60 044191E7 	 ldr ra, [r1, ra, lsl #2]
 7983              	@ KPG     P8 G208
 7984 4c64 40139BE5 	 ldr r1, [rg, #+832] @ 00000340
 7985 4c68 20208AE2 	 add r2, rp, #32 @ 00000020
 7986 4c6c 0FE0A0E1 	 mov lr, pc
 7987 4c70 01F0A0E1 	 mov pc, r1
 7988              	@ LW      M43
 7989 4c74 D64F8FE2 	 adrl ra, MA43
 7989      0000A0E1 
 7990 4c7c 004094E5 	 ldr ra, [ra]
 7991              	@ SP      P12
 7992 4c80 30408AE5 	 str ra, [rp, #+48] @ 00000030
 7993              	@ LKP     K1 P7
 7994 4c84 1C409AE5 	 ldr ra, [rp, #+28] @ 0000001C
 7995 4c88 0410A0E3 	 mov r1, #4 @ 00000004
 7996 4c8c 044191E7 	 ldr ra, [r1, ra, lsl #2]
 7997              	@ KPG     P8 G208
 7998 4c90 40139BE5 	 ldr r1, [rg, #+832] @ 00000340
 7999 4c94 20208AE2 	 add r2, rp, #32 @ 00000020
 8000 4c98 0FE0A0E1 	 mov lr, pc
 8001 4c9c 01F0A0E1 	 mov pc, r1
 8002              	@ LKP     K0 P7
 8003 4ca0 1C409AE5 	 ldr ra, [rp, #+28] @ 0000001C
 8004 4ca4 0010A0E3 	 mov r1, #0 @ 00000000
 8005 4ca8 044191E7 	 ldr ra, [r1, ra, lsl #2]
 8006              	@ ATBL    K4
 8007 4cac 0450A0E1 	 mov rb, ra
 8008 4cb0 0440A0E3 	 mov ra, #4 @ 00000004
 8009              	@ RSH
 8010 4cb4 1F0054E3 	 cmp ra, #31
 8011 4cb8 0050A083 	 movhi rb, #0
ARM GAS  temps/cmpltest.s 			page 143


 8012 4cbc 3544A0E1 	 mov ra, rb, lsr ra
 8013              	@ ATB
 8014 4cc0 0450A0E1 	 mov rb, ra
 8015              	@ LW      M44
 8016 4cc4 C34F8FE2 	 adrl ra, MA44
 8016      0000A0E1 
 8017 4ccc 004094E5 	 ldr ra, [ra]
 8018              	@ SP      P12
 8019 4cd0 30408AE5 	 str ra, [rp, #+48] @ 00000030
 8020              	@ XCH
 8021 4cd4 0410A0E1 	 mov r1, ra
 8022 4cd8 0540A0E1 	 mov ra, rb
 8023 4cdc 0150A0E1 	 mov rb, r1
 8024              	@ KPG     P8 G208
 8025 4ce0 40139BE5 	 ldr r1, [rg, #+832] @ 00000340
 8026 4ce4 20208AE2 	 add r2, rp, #32 @ 00000020
 8027 4ce8 0FE0A0E1 	 mov lr, pc
 8028 4cec 01F0A0E1 	 mov pc, r1
 8029              	@ LKP     K1 P7
 8030 4cf0 1C409AE5 	 ldr ra, [rp, #+28] @ 0000001C
 8031 4cf4 0410A0E3 	 mov r1, #4 @ 00000004
 8032 4cf8 044191E7 	 ldr ra, [r1, ra, lsl #2]
 8033              	@ ATBL    K4
 8034 4cfc 0450A0E1 	 mov rb, ra
 8035 4d00 0440A0E3 	 mov ra, #4 @ 00000004
 8036              	@ RSH
 8037 4d04 1F0054E3 	 cmp ra, #31
 8038 4d08 0050A083 	 movhi rb, #0
 8039 4d0c 3544A0E1 	 mov ra, rb, lsr ra
 8040              	@ ATBL    K255
 8041 4d10 0450A0E1 	 mov rb, ra
 8042 4d14 FF40A0E3 	 mov ra, #255 @ 000000FF
 8043              	@ AND
 8044 4d18 044005E0 	 and ra, rb, ra
 8045              	@ ATB
 8046 4d1c 0450A0E1 	 mov rb, ra
 8047              	@ L       K169
 8048 4d20 A940A0E3 	 mov ra, #169 @ 000000A9
 8049              	@ SP      P12
 8050 4d24 30408AE5 	 str ra, [rp, #+48] @ 00000030
 8051              	@ XCH
 8052 4d28 0410A0E1 	 mov r1, ra
 8053 4d2c 0540A0E1 	 mov ra, rb
 8054 4d30 0150A0E1 	 mov rb, r1
 8055              	@ KPG     P8 G208
 8056 4d34 40139BE5 	 ldr r1, [rg, #+832] @ 00000340
 8057 4d38 20208AE2 	 add r2, rp, #32 @ 00000020
 8058 4d3c 0FE0A0E1 	 mov lr, pc
 8059 4d40 01F0A0E1 	 mov pc, r1
 8060              	@ LKP     K0 P7
 8061 4d44 1C409AE5 	 ldr ra, [rp, #+28] @ 0000001C
 8062 4d48 0010A0E3 	 mov r1, #0 @ 00000000
 8063 4d4c 044191E7 	 ldr ra, [r1, ra, lsl #2]
 8064              	@ ATBL    K255
 8065 4d50 0450A0E1 	 mov rb, ra
 8066 4d54 FF40A0E3 	 mov ra, #255 @ 000000FF
 8067              	@ AND
ARM GAS  temps/cmpltest.s 			page 144


 8068 4d58 044005E0 	 and ra, rb, ra
 8069              	@ ATB
 8070 4d5c 0450A0E1 	 mov rb, ra
 8071              	@ L       K120
 8072 4d60 7840A0E3 	 mov ra, #120 @ 00000078
 8073              	@ SP      P12
 8074 4d64 30408AE5 	 str ra, [rp, #+48] @ 00000030
 8075              	@ XCH
 8076 4d68 0410A0E1 	 mov r1, ra
 8077 4d6c 0540A0E1 	 mov ra, rb
 8078 4d70 0150A0E1 	 mov rb, r1
 8079              	@ KPG     P8 G208
 8080 4d74 40139BE5 	 ldr r1, [rg, #+832] @ 00000340
 8081 4d78 20208AE2 	 add r2, rp, #32 @ 00000020
 8082 4d7c 0FE0A0E1 	 mov lr, pc
 8083 4d80 01F0A0E1 	 mov pc, r1
 8084              	@ LP      P3
 8085 4d84 0C409AE5 	 ldr ra, [rp, #+12] @ 0000000C
 8086              	@ SP      P5
 8087 4d88 14408AE5 	 str ra, [rp, #+20] @ 00000014
 8088              	@ LP      P4
 8089 4d8c 10409AE5 	 ldr ra, [rp, #+16] @ 00000010
 8090              	@ SP      P6
 8091 4d90 18408AE5 	 str ra, [rp, #+24] @ 00000018
 8092              	@ LW      M45
 8093 4d94 094D8FE2 	 adrl ra, MA45
 8093      0000A0E1 
 8094 4d9c 004094E5 	 ldr ra, [ra]
 8095              	@ STKP    K0 P7
 8096 4da0 1C109AE5 	 ldr r1, [rp, #+28] @ 0000001C
 8097 4da4 0020A0E3 	 mov r2, #0 @ 00000000
 8098 4da8 014182E7 	 str ra, [r2, r1, lsl #2]
 8099              	@ LW      M46
 8100 4dac 8B4F8FE2 	 adrl ra, MA46
 8100      0000A0E1 
 8101 4db4 004094E5 	 ldr ra, [ra]
 8102              	@ SP      P12
 8103 4db8 30408AE5 	 str ra, [rp, #+48] @ 00000030
 8104              	@ LP      P5
 8105 4dbc 14409AE5 	 ldr ra, [rp, #+20] @ 00000014
 8106              	@ KPG     P8 G208
 8107 4dc0 40139BE5 	 ldr r1, [rg, #+832] @ 00000340
 8108 4dc4 20208AE2 	 add r2, rp, #32 @ 00000020
 8109 4dc8 0FE0A0E1 	 mov lr, pc
 8110 4dcc 01F0A0E1 	 mov pc, r1
 8111              	@ LP      P3
 8112 4dd0 0C409AE5 	 ldr ra, [rp, #+12] @ 0000000C
 8113              	@ SP      P5
 8114 4dd4 14408AE5 	 str ra, [rp, #+20] @ 00000014
 8115              	@ LP      P4
 8116 4dd8 10409AE5 	 ldr ra, [rp, #+16] @ 00000010
 8117              	@ SP      P6
 8118 4ddc 18408AE5 	 str ra, [rp, #+24] @ 00000018
 8119              	@ LW      M47
 8120 4de0 7F4F8FE2 	 adrl ra, MA47
 8120      0000A0E1 
 8121 4de8 004094E5 	 ldr ra, [ra]
ARM GAS  temps/cmpltest.s 			page 145


 8122              	@ STKP    K1 P7
 8123 4dec 1C109AE5 	 ldr r1, [rp, #+28] @ 0000001C
 8124 4df0 0420A0E3 	 mov r2, #4 @ 00000004
 8125 4df4 014182E7 	 str ra, [r2, r1, lsl #2]
 8126              	@ LW      M48
 8127 4df8 7A4F8FE2 	 adrl ra, MA48
 8127      0000A0E1 
 8128 4e00 004094E5 	 ldr ra, [ra]
 8129              	@ SP      P12
 8130 4e04 30408AE5 	 str ra, [rp, #+48] @ 00000030
 8131              	@ LP      P6
 8132 4e08 18409AE5 	 ldr ra, [rp, #+24] @ 00000018
 8133              	@ KPG     P8 G208
 8134 4e0c 40139BE5 	 ldr r1, [rg, #+832] @ 00000340
 8135 4e10 20208AE2 	 add r2, rp, #32 @ 00000020
 8136 4e14 0FE0A0E1 	 mov lr, pc
 8137 4e18 01F0A0E1 	 mov pc, r1
 8138              	@ LP      P3
 8139 4e1c 0C409AE5 	 ldr ra, [rp, #+12] @ 0000000C
 8140              	@ SP      P5
 8141 4e20 14408AE5 	 str ra, [rp, #+20] @ 00000014
 8142              	@ LP      P4
 8143 4e24 10409AE5 	 ldr ra, [rp, #+16] @ 00000010
 8144              	@ SP      P6
 8145 4e28 18408AE5 	 str ra, [rp, #+24] @ 00000018
 8146              	@ LW      M49
 8147 4e2c 6E4F8FE2 	 adrl ra, MA49
 8147      0000A0E1 
 8148 4e34 004094E5 	 ldr ra, [ra]
 8149              	@ ATBL    K4
 8150 4e38 0450A0E1 	 mov rb, ra
 8151 4e3c 0440A0E3 	 mov ra, #4 @ 00000004
 8152              	@ LSH
 8153 4e40 1F0054E3 	 cmp ra, #31
 8154 4e44 0050A083 	 movhi rb, #0
 8155 4e48 1544A0E1 	 mov ra, rb, lsl ra
 8156              	@ ATB
 8157 4e4c 0450A0E1 	 mov rb, ra
 8158              	@ LKP     K0 P7
 8159 4e50 1C409AE5 	 ldr ra, [rp, #+28] @ 0000001C
 8160 4e54 0010A0E3 	 mov r1, #0 @ 00000000
 8161 4e58 044191E7 	 ldr ra, [r1, ra, lsl #2]
 8162              	@ XOR
 8163 4e5c 044025E0 	 eor ra, rb, ra
 8164              	@ ATBL    K-16
 8165 4e60 0450A0E1 	 mov rb, ra
 8166 4e64 0F40E0E3 	 mvn ra, #15 @ 0000000F
 8167              	@ AND
 8168 4e68 044005E0 	 and ra, rb, ra
 8169              	@ ATB
 8170 4e6c 0450A0E1 	 mov rb, ra
 8171              	@ LKP     K0 P7
 8172 4e70 1C409AE5 	 ldr ra, [rp, #+28] @ 0000001C
 8173 4e74 0010A0E3 	 mov r1, #0 @ 00000000
 8174 4e78 044191E7 	 ldr ra, [r1, ra, lsl #2]
 8175              	@ XOR
 8176 4e7c 044025E0 	 eor ra, rb, ra
ARM GAS  temps/cmpltest.s 			page 146


 8177              	@ STKP    K0 P7
 8178 4e80 1C109AE5 	 ldr r1, [rp, #+28] @ 0000001C
 8179 4e84 0020A0E3 	 mov r2, #0 @ 00000000
 8180 4e88 014182E7 	 str ra, [r2, r1, lsl #2]
 8181              	@ LW      M50
 8182 4e8c 574F8FE2 	 adrl ra, MA50
 8182      0000A0E1 
 8183 4e94 004094E5 	 ldr ra, [ra]
 8184              	@ SP      P12
 8185 4e98 30408AE5 	 str ra, [rp, #+48] @ 00000030
 8186              	@ LP      P5
 8187 4e9c 14409AE5 	 ldr ra, [rp, #+20] @ 00000014
 8188              	@ KPG     P8 G208
 8189 4ea0 40139BE5 	 ldr r1, [rg, #+832] @ 00000340
 8190 4ea4 20208AE2 	 add r2, rp, #32 @ 00000020
 8191 4ea8 0FE0A0E1 	 mov lr, pc
 8192 4eac 01F0A0E1 	 mov pc, r1
 8193              	@ LP      P3
 8194 4eb0 0C409AE5 	 ldr ra, [rp, #+12] @ 0000000C
 8195              	@ SP      P5
 8196 4eb4 14408AE5 	 str ra, [rp, #+20] @ 00000014
 8197              	@ LP      P4
 8198 4eb8 10409AE5 	 ldr ra, [rp, #+16] @ 00000010
 8199              	@ SP      P6
 8200 4ebc 18408AE5 	 str ra, [rp, #+24] @ 00000018
 8201              	@ LW      M51
 8202 4ec0 4B4F8FE2 	 adrl ra, MA51
 8202      0000A0E1 
 8203 4ec8 004094E5 	 ldr ra, [ra]
 8204              	@ ATBL    K4
 8205 4ecc 0450A0E1 	 mov rb, ra
 8206 4ed0 0440A0E3 	 mov ra, #4 @ 00000004
 8207              	@ LSH
 8208 4ed4 1F0054E3 	 cmp ra, #31
 8209 4ed8 0050A083 	 movhi rb, #0
 8210 4edc 1544A0E1 	 mov ra, rb, lsl ra
 8211              	@ ATB
 8212 4ee0 0450A0E1 	 mov rb, ra
 8213              	@ LKP     K1 P7
 8214 4ee4 1C409AE5 	 ldr ra, [rp, #+28] @ 0000001C
 8215 4ee8 0410A0E3 	 mov r1, #4 @ 00000004
 8216 4eec 044191E7 	 ldr ra, [r1, ra, lsl #2]
 8217              	@ XOR
 8218 4ef0 044025E0 	 eor ra, rb, ra
 8219              	@ ATBL    K4080
 8220 4ef4 0450A0E1 	 mov rb, ra
 8221 4ef8 FF4EA0E3 	 mov ra, #4080 @ 00000FF0
 8222              	@ AND
 8223 4efc 044005E0 	 and ra, rb, ra
 8224              	@ ATB
 8225 4f00 0450A0E1 	 mov rb, ra
 8226              	@ LKP     K1 P7
 8227 4f04 1C409AE5 	 ldr ra, [rp, #+28] @ 0000001C
 8228 4f08 0410A0E3 	 mov r1, #4 @ 00000004
 8229 4f0c 044191E7 	 ldr ra, [r1, ra, lsl #2]
 8230              	@ XOR
 8231 4f10 044025E0 	 eor ra, rb, ra
ARM GAS  temps/cmpltest.s 			page 147


 8232              	@ STKP    K1 P7
 8233 4f14 1C109AE5 	 ldr r1, [rp, #+28] @ 0000001C
 8234 4f18 0420A0E3 	 mov r2, #4 @ 00000004
 8235 4f1c 014182E7 	 str ra, [r2, r1, lsl #2]
 8236              	@ LW      M52
 8237 4f20 D0408FE2 	 adrl ra, MA52
 8237      0000A0E1 
 8238 4f28 004094E5 	 ldr ra, [ra]
 8239              	@ SP      P12
 8240 4f2c 30408AE5 	 str ra, [rp, #+48] @ 00000030
 8241              	@ LP      P6
 8242 4f30 18409AE5 	 ldr ra, [rp, #+24] @ 00000018
 8243              	@ KPG     P8 G208
 8244 4f34 40139BE5 	 ldr r1, [rg, #+832] @ 00000340
 8245 4f38 20208AE2 	 add r2, rp, #32 @ 00000020
 8246 4f3c 0FE0A0E1 	 mov lr, pc
 8247 4f40 01F0A0E1 	 mov pc, r1
 8248              	@ LP      P3
 8249 4f44 0C409AE5 	 ldr ra, [rp, #+12] @ 0000000C
 8250              	@ SP      P5
 8251 4f48 14408AE5 	 str ra, [rp, #+20] @ 00000014
 8252              	@ LP      P4
 8253 4f4c 10409AE5 	 ldr ra, [rp, #+16] @ 00000010
 8254              	@ SP      P6
 8255 4f50 18408AE5 	 str ra, [rp, #+24] @ 00000018
 8256              	@ LW      M53
 8257 4f54 A0408FE2 	 adrl ra, MA53
 8257      0000A0E1 
 8258 4f5c 004094E5 	 ldr ra, [ra]
 8259              	@ ATB
 8260 4f60 0450A0E1 	 mov rb, ra
 8261              	@ LKP     K0 P7
 8262 4f64 1C409AE5 	 ldr ra, [rp, #+28] @ 0000001C
 8263 4f68 0010A0E3 	 mov r1, #0 @ 00000000
 8264 4f6c 044191E7 	 ldr ra, [r1, ra, lsl #2]
 8265              	@ XOR
 8266 4f70 044025E0 	 eor ra, rb, ra
 8267              	@ ATBL    K255
 8268 4f74 0450A0E1 	 mov rb, ra
 8269 4f78 FF40A0E3 	 mov ra, #255 @ 000000FF
 8270              	@ AND
 8271 4f7c 044005E0 	 and ra, rb, ra
 8272              	@ ATB
 8273 4f80 0450A0E1 	 mov rb, ra
 8274              	@ LKP     K0 P7
 8275 4f84 1C409AE5 	 ldr ra, [rp, #+28] @ 0000001C
 8276 4f88 0010A0E3 	 mov r1, #0 @ 00000000
 8277 4f8c 044191E7 	 ldr ra, [r1, ra, lsl #2]
 8278              	@ XOR
 8279 4f90 044025E0 	 eor ra, rb, ra
 8280              	@ STKP    K0 P7
 8281 4f94 1C109AE5 	 ldr r1, [rp, #+28] @ 0000001C
 8282 4f98 0020A0E3 	 mov r2, #0 @ 00000000
 8283 4f9c 014182E7 	 str ra, [r2, r1, lsl #2]
 8284              	@ LW      M54
 8285 4fa0 58408FE2 	 adrl ra, MA54
 8285      0000A0E1 
ARM GAS  temps/cmpltest.s 			page 148


 8286 4fa8 004094E5 	 ldr ra, [ra]
 8287              	@ SP      P12
 8288 4fac 30408AE5 	 str ra, [rp, #+48] @ 00000030
 8289              	@ LP      P5
 8290 4fb0 14409AE5 	 ldr ra, [rp, #+20] @ 00000014
 8291              	@ KPG     P8 G208
 8292 4fb4 40139BE5 	 ldr r1, [rg, #+832] @ 00000340
 8293 4fb8 20208AE2 	 add r2, rp, #32 @ 00000020
 8294 4fbc 0FE0A0E1 	 mov lr, pc
 8295 4fc0 01F0A0E1 	 mov pc, r1
 8296              	@ RTN
 8297 4fc4 00849AE8 	 ldmia rp, {rp, pc}
 8298              	 .ltorg
 8299              	
 8300              	@ CONST   M40 W305419896
 8301              	MA40:
 8302 4fc8 78563412 	 .long 305419896
 8303              	@ CONST   M41 W-19088744
 8304              	MA41:
 8305 4fcc 98BADCFE 	 .long -19088744
 8306              	@ CONST   M42 W305419896
 8307              	MA42:
 8308 4fd0 78563412 	 .long 305419896
 8309              	@ CONST   M43 W-19088744
 8310              	MA43:
 8311 4fd4 98BADCFE 	 .long -19088744
 8312              	@ CONST   M44 W19088743
 8313              	MA44:
 8314 4fd8 67452301 	 .long 19088743
 8315              	@ CONST   M45 W558065031
 8316              	MA45:
 8317 4fdc 87654321 	 .long 558065031
 8318              	@ CONST   M46 W558065031
 8319              	MA46:
 8320 4fe0 87654321 	 .long 558065031
 8321              	@ CONST   M47 W-271733879
 8322              	MA47:
 8323 4fe4 89ABCDEF 	 .long -271733879
 8324              	@ CONST   M48 W-271733879
 8325              	MA48:
 8326 4fe8 89ABCDEF 	 .long -271733879
 8327              	@ CONST   M49 W-271733879
 8328              	MA49:
 8329 4fec 89ABCDEF 	 .long -271733879
 8330              	@ CONST   M50 W-52774760
 8331              	MA50:
 8332 4ff0 98B8DAFC 	 .long -52774760
 8333              	@ CONST   M51 W-1450744509
 8334              	MA51:
 8335 4ff4 436587A9 	 .long -1450744509
 8336              	@ CONST   M52 W-19090376
 8337              	MA52:
 8338 4ff8 38B4DCFE 	 .long -19090376
 8339              	@ CONST   M53 W-878082203
 8340              	MA53:
 8341 4ffc 6587A9CB 	 .long -878082203
 8342              	@ CONST   M54 W305419877
ARM GAS  temps/cmpltest.s 			page 149


 8343              	MA54:
 8344 5000 65563412 	 .long 305419877
 8345              	
 8346              	@ Entry to: locals
 8347              	@ ENTRY   K6 C108 C111 C99 C97 C108 C115
 8348              	@ LAB     L28
 8349              	
 8350              	LA28:
 8351 5004 0044A2E8 	 stmia r2!, {r10,lr}
 8352 5008 120082E8 	 stmia r2, {r1,ra}
 8353 500c 08A042E2 	 sub rp, r2, #8
 8354              	@ L       K103
 8355 5010 6740A0E3 	 mov ra, #103 @ 00000067
 8356              	@ SP      P22
 8357 5014 58408AE5 	 str ra, [rp, #+88] @ 00000058
 8358              	@ LP      P3
 8359 5018 0C409AE5 	 ldr ra, [rp, #+12] @ 0000000C
 8360              	@ KPG     P18 G208
 8361 501c 40139BE5 	 ldr r1, [rg, #+832] @ 00000340
 8362 5020 48208AE2 	 add r2, rp, #72 @ 00000048
 8363 5024 0FE0A0E1 	 mov lr, pc
 8364 5028 01F0A0E1 	 mov pc, r1
 8365              	@ L       K104
 8366 502c 6840A0E3 	 mov ra, #104 @ 00000068
 8367              	@ SP      P22
 8368 5030 58408AE5 	 str ra, [rp, #+88] @ 00000058
 8369              	@ LP      P4
 8370 5034 10409AE5 	 ldr ra, [rp, #+16] @ 00000010
 8371              	@ KPG     P18 G208
 8372 5038 40139BE5 	 ldr r1, [rg, #+832] @ 00000340
 8373 503c 48208AE2 	 add r2, rp, #72 @ 00000048
 8374 5040 0FE0A0E1 	 mov lr, pc
 8375 5044 01F0A0E1 	 mov pc, r1
 8376              	@ L       K105
 8377 5048 6940A0E3 	 mov ra, #105 @ 00000069
 8378              	@ SP      P22
 8379 504c 58408AE5 	 str ra, [rp, #+88] @ 00000058
 8380              	@ LP      P5
 8381 5050 14409AE5 	 ldr ra, [rp, #+20] @ 00000014
 8382              	@ KPG     P18 G208
 8383 5054 40139BE5 	 ldr r1, [rg, #+832] @ 00000340
 8384 5058 48208AE2 	 add r2, rp, #72 @ 00000048
 8385 505c 0FE0A0E1 	 mov lr, pc
 8386 5060 01F0A0E1 	 mov pc, r1
 8387              	@ L       K106
 8388 5064 6A40A0E3 	 mov ra, #106 @ 0000006A
 8389              	@ SP      P22
 8390 5068 58408AE5 	 str ra, [rp, #+88] @ 00000058
 8391              	@ LP      P6
 8392 506c 18409AE5 	 ldr ra, [rp, #+24] @ 00000018
 8393              	@ KPG     P18 G208
 8394 5070 40139BE5 	 ldr r1, [rg, #+832] @ 00000340
 8395 5074 48208AE2 	 add r2, rp, #72 @ 00000048
 8396 5078 0FE0A0E1 	 mov lr, pc
 8397 507c 01F0A0E1 	 mov pc, r1
 8398              	@ L       K107
 8399 5080 6B40A0E3 	 mov ra, #107 @ 0000006B
ARM GAS  temps/cmpltest.s 			page 150


 8400              	@ SP      P22
 8401 5084 58408AE5 	 str ra, [rp, #+88] @ 00000058
 8402              	@ LP      P7
 8403 5088 1C409AE5 	 ldr ra, [rp, #+28] @ 0000001C
 8404              	@ KPG     P18 G208
 8405 508c 40139BE5 	 ldr r1, [rg, #+832] @ 00000340
 8406 5090 48208AE2 	 add r2, rp, #72 @ 00000048
 8407 5094 0FE0A0E1 	 mov lr, pc
 8408 5098 01F0A0E1 	 mov pc, r1
 8409              	@ L       K108
 8410 509c 6C40A0E3 	 mov ra, #108 @ 0000006C
 8411              	@ SP      P22
 8412 50a0 58408AE5 	 str ra, [rp, #+88] @ 00000058
 8413              	@ LP      P8
 8414 50a4 20409AE5 	 ldr ra, [rp, #+32] @ 00000020
 8415              	@ KPG     P18 G208
 8416 50a8 40139BE5 	 ldr r1, [rg, #+832] @ 00000340
 8417 50ac 48208AE2 	 add r2, rp, #72 @ 00000048
 8418 50b0 0FE0A0E1 	 mov lr, pc
 8419 50b4 01F0A0E1 	 mov pc, r1
 8420              	@ L       K109
 8421 50b8 6D40A0E3 	 mov ra, #109 @ 0000006D
 8422              	@ SP      P22
 8423 50bc 58408AE5 	 str ra, [rp, #+88] @ 00000058
 8424              	@ LP      P9
 8425 50c0 24409AE5 	 ldr ra, [rp, #+36] @ 00000024
 8426              	@ KPG     P18 G208
 8427 50c4 40139BE5 	 ldr r1, [rg, #+832] @ 00000340
 8428 50c8 48208AE2 	 add r2, rp, #72 @ 00000048
 8429 50cc 0FE0A0E1 	 mov lr, pc
 8430 50d0 01F0A0E1 	 mov pc, r1
 8431              	@ L       K110
 8432 50d4 6E40A0E3 	 mov ra, #110 @ 0000006E
 8433              	@ SP      P22
 8434 50d8 58408AE5 	 str ra, [rp, #+88] @ 00000058
 8435              	@ LP      P10
 8436 50dc 28409AE5 	 ldr ra, [rp, #+40] @ 00000028
 8437              	@ KPG     P18 G208
 8438 50e0 40139BE5 	 ldr r1, [rg, #+832] @ 00000340
 8439 50e4 48208AE2 	 add r2, rp, #72 @ 00000048
 8440 50e8 0FE0A0E1 	 mov lr, pc
 8441 50ec 01F0A0E1 	 mov pc, r1
 8442              	@ L       K111
 8443 50f0 6F40A0E3 	 mov ra, #111 @ 0000006F
 8444              	@ SP      P22
 8445 50f4 58408AE5 	 str ra, [rp, #+88] @ 00000058
 8446              	@ LP      P11
 8447 50f8 2C409AE5 	 ldr ra, [rp, #+44] @ 0000002C
 8448              	@ KPG     P18 G208
 8449 50fc 40139BE5 	 ldr r1, [rg, #+832] @ 00000340
 8450 5100 48208AE2 	 add r2, rp, #72 @ 00000048
 8451 5104 0FE0A0E1 	 mov lr, pc
 8452 5108 01F0A0E1 	 mov pc, r1
 8453              	@ L       K112
 8454 510c 7040A0E3 	 mov ra, #112 @ 00000070
 8455              	@ SP      P22
 8456 5110 58408AE5 	 str ra, [rp, #+88] @ 00000058
ARM GAS  temps/cmpltest.s 			page 151


 8457              	@ LP      P12
 8458 5114 30409AE5 	 ldr ra, [rp, #+48] @ 00000030
 8459              	@ KPG     P18 G208
 8460 5118 40139BE5 	 ldr r1, [rg, #+832] @ 00000340
 8461 511c 48208AE2 	 add r2, rp, #72 @ 00000048
 8462 5120 0FE0A0E1 	 mov lr, pc
 8463 5124 01F0A0E1 	 mov pc, r1
 8464              	@ L       K113
 8465 5128 7140A0E3 	 mov ra, #113 @ 00000071
 8466              	@ SP      P22
 8467 512c 58408AE5 	 str ra, [rp, #+88] @ 00000058
 8468              	@ LP      P13
 8469 5130 34409AE5 	 ldr ra, [rp, #+52] @ 00000034
 8470              	@ KPG     P18 G208
 8471 5134 40139BE5 	 ldr r1, [rg, #+832] @ 00000340
 8472 5138 48208AE2 	 add r2, rp, #72 @ 00000048
 8473 513c 0FE0A0E1 	 mov lr, pc
 8474 5140 01F0A0E1 	 mov pc, r1
 8475              	@ L       K114
 8476 5144 7240A0E3 	 mov ra, #114 @ 00000072
 8477              	@ SP      P22
 8478 5148 58408AE5 	 str ra, [rp, #+88] @ 00000058
 8479              	@ LP      P14
 8480 514c 38409AE5 	 ldr ra, [rp, #+56] @ 00000038
 8481              	@ KPG     P18 G208
 8482 5150 40139BE5 	 ldr r1, [rg, #+832] @ 00000340
 8483 5154 48208AE2 	 add r2, rp, #72 @ 00000048
 8484 5158 0FE0A0E1 	 mov lr, pc
 8485 515c 01F0A0E1 	 mov pc, r1
 8486              	@ L       K115
 8487 5160 7340A0E3 	 mov ra, #115 @ 00000073
 8488              	@ SP      P22
 8489 5164 58408AE5 	 str ra, [rp, #+88] @ 00000058
 8490              	@ LP      P15
 8491 5168 3C409AE5 	 ldr ra, [rp, #+60] @ 0000003C
 8492              	@ KPG     P18 G208
 8493 516c 40139BE5 	 ldr r1, [rg, #+832] @ 00000340
 8494 5170 48208AE2 	 add r2, rp, #72 @ 00000048
 8495 5174 0FE0A0E1 	 mov lr, pc
 8496 5178 01F0A0E1 	 mov pc, r1
 8497              	@ L       K116
 8498 517c 7440A0E3 	 mov ra, #116 @ 00000074
 8499              	@ SP      P22
 8500 5180 58408AE5 	 str ra, [rp, #+88] @ 00000058
 8501              	@ LP      P16
 8502 5184 40409AE5 	 ldr ra, [rp, #+64] @ 00000040
 8503              	@ KPG     P18 G208
 8504 5188 40139BE5 	 ldr r1, [rg, #+832] @ 00000340
 8505 518c 48208AE2 	 add r2, rp, #72 @ 00000048
 8506 5190 0FE0A0E1 	 mov lr, pc
 8507 5194 01F0A0E1 	 mov pc, r1
 8508              	@ L       K117
 8509 5198 7540A0E3 	 mov ra, #117 @ 00000075
 8510              	@ SP      P22
 8511 519c 58408AE5 	 str ra, [rp, #+88] @ 00000058
 8512              	@ LP      P17
 8513 51a0 44409AE5 	 ldr ra, [rp, #+68] @ 00000044
ARM GAS  temps/cmpltest.s 			page 152


 8514              	@ KPG     P18 G208
 8515 51a4 40139BE5 	 ldr r1, [rg, #+832] @ 00000340
 8516 51a8 48208AE2 	 add r2, rp, #72 @ 00000048
 8517 51ac 0FE0A0E1 	 mov lr, pc
 8518 51b0 01F0A0E1 	 mov pc, r1
 8519              	@ RTN
 8520 51b4 00849AE8 	 ldmia rp, {rp, pc}
 8521              	 .ltorg
 8522              	
 8523              	@ GLOBAL K2
 8524              	
 8525              	 .global cmpltest
 8526              	cmpltest:
 8527              	
 8528              	@ On entry r0 points to the Global vector
 8529              	@ G1 L25
 8530 51b8 2C104FE2 	 adrl r1, LA25
 8530      4B1C41E2 
 8531 51c0 041080E5 	 str r1, [r0, #+4] @ 00000004
 8532              	@ G208 L19
 8533 51c4 E4104FE2 	 adrl r1, LA19
 8533      4D1C41E2 
 8534 51cc 401380E5 	 str r1, [r0, #+832] @ 00000340
 8535              	@ G602
 8536 51d0 0EF0A0E1 	 mov pc, lr
 8537              	
 8538              	 .ltorg
 8539              	
 8540              	@ MODEND
